
saxpy.elf:     file format elf32-littleriscv


Disassembly of section .text:

000100a0 <exit>:
   100a0:	1141                	addi	sp,sp,-16
   100a2:	4581                	li	a1,0
   100a4:	c422                	sw	s0,8(sp)
   100a6:	c606                	sw	ra,12(sp)
   100a8:	842a                	mv	s0,a0
   100aa:	1b8020ef          	jal	ra,12262 <__call_exitprocs>
   100ae:	5b81a503          	lw	a0,1464(gp) # 1fdc8 <_global_impure_ptr>
   100b2:	5d5c                	lw	a5,60(a0)
   100b4:	c391                	beqz	a5,100b8 <exit+0x18>
   100b6:	9782                	jalr	a5
   100b8:	8522                	mv	a0,s0
   100ba:	10c0b0ef          	jal	ra,1b1c6 <_exit>

000100be <register_fini>:
   100be:	00000793          	li	a5,0
   100c2:	c791                	beqz	a5,100ce <register_fini+0x10>
   100c4:	6549                	lui	a0,0x12
   100c6:	7aa50513          	addi	a0,a0,1962 # 127aa <__libc_fini_array>
   100ca:	1070906f          	j	199d0 <atexit>
   100ce:	8082                	ret

000100d0 <_start>:
   100d0:	0000f197          	auipc	gp,0xf
   100d4:	74018193          	addi	gp,gp,1856 # 1f810 <__global_pointer$>
   100d8:	5cc18513          	addi	a0,gp,1484 # 1fddc <_PathLocale>
   100dc:	62818613          	addi	a2,gp,1576 # 1fe38 <__BSS_END__>
   100e0:	8e09                	sub	a2,a2,a0
   100e2:	4581                	li	a1,0
   100e4:	2409                	jal	102e6 <memset>
   100e6:	0000a517          	auipc	a0,0xa
   100ea:	8ea50513          	addi	a0,a0,-1814 # 199d0 <atexit>
   100ee:	c519                	beqz	a0,100fc <_start+0x2c>
   100f0:	00002517          	auipc	a0,0x2
   100f4:	6ba50513          	addi	a0,a0,1722 # 127aa <__libc_fini_array>
   100f8:	0d9090ef          	jal	ra,199d0 <atexit>
   100fc:	2aa5                	jal	10274 <__libc_init_array>
   100fe:	4502                	lw	a0,0(sp)
   10100:	004c                	addi	a1,sp,4
   10102:	4601                	li	a2,0
   10104:	28e1                	jal	101dc <main>
   10106:	bf69                	j	100a0 <exit>

00010108 <__do_global_dtors_aux>:
   10108:	1141                	addi	sp,sp,-16
   1010a:	c422                	sw	s0,8(sp)
   1010c:	5e41c783          	lbu	a5,1508(gp) # 1fdf4 <completed.1>
   10110:	c606                	sw	ra,12(sp)
   10112:	ef99                	bnez	a5,10130 <__do_global_dtors_aux+0x28>
   10114:	00000793          	li	a5,0
   10118:	cb89                	beqz	a5,1012a <__do_global_dtors_aux+0x22>
   1011a:	0001f537          	lui	a0,0x1f
   1011e:	00050513          	mv	a0,a0
   10122:	00000097          	auipc	ra,0x0
   10126:	000000e7          	jalr	zero # 0 <exit-0x100a0>
   1012a:	4785                	li	a5,1
   1012c:	5ef18223          	sb	a5,1508(gp) # 1fdf4 <completed.1>
   10130:	40b2                	lw	ra,12(sp)
   10132:	4422                	lw	s0,8(sp)
   10134:	0141                	addi	sp,sp,16
   10136:	8082                	ret

00010138 <frame_dummy>:
   10138:	00000793          	li	a5,0
   1013c:	cb99                	beqz	a5,10152 <frame_dummy+0x1a>
   1013e:	0001f537          	lui	a0,0x1f
   10142:	5e818593          	addi	a1,gp,1512 # 1fdf8 <object.0>
   10146:	00050513          	mv	a0,a0
   1014a:	00000317          	auipc	t1,0x0
   1014e:	00000067          	jr	zero # 0 <exit-0x100a0>
   10152:	8082                	ret

00010154 <print_arr>:
   10154:	fd010113          	addi	sp,sp,-48
   10158:	02112623          	sw	ra,44(sp)
   1015c:	02812423          	sw	s0,40(sp)
   10160:	03010413          	addi	s0,sp,48
   10164:	fca42e23          	sw	a0,-36(s0)
   10168:	fcb42c23          	sw	a1,-40(s0)
   1016c:	fe042623          	sw	zero,-20(s0)
   10170:	0400006f          	j	101b0 <print_arr+0x5c>
   10174:	fec42783          	lw	a5,-20(s0)
   10178:	00279793          	slli	a5,a5,0x2
   1017c:	fdc42703          	lw	a4,-36(s0)
   10180:	00f707b3          	add	a5,a4,a5
   10184:	0007a787          	flw	fa5,0(a5)
   10188:	420787d3          	fcvt.d.s	fa5,fa5
   1018c:	fcf43827          	fsd	fa5,-48(s0)
   10190:	fd042603          	lw	a2,-48(s0)
   10194:	fd442683          	lw	a3,-44(s0)
   10198:	0001e7b7          	lui	a5,0x1e
   1019c:	d2878513          	addi	a0,a5,-728 # 1dd28 <__clzsi2+0x3c>
   101a0:	20e000ef          	jal	ra,103ae <printf>
   101a4:	fec42783          	lw	a5,-20(s0)
   101a8:	00178793          	addi	a5,a5,1
   101ac:	fef42623          	sw	a5,-20(s0)
   101b0:	fec42703          	lw	a4,-20(s0)
   101b4:	fd842783          	lw	a5,-40(s0)
   101b8:	faf74ee3          	blt	a4,a5,10174 <print_arr+0x20>
   101bc:	0001e7b7          	lui	a5,0x1e
   101c0:	d2c78513          	addi	a0,a5,-724 # 1dd2c <__clzsi2+0x40>
   101c4:	290000ef          	jal	ra,10454 <puts>
   101c8:	00000013          	nop
   101cc:	02c12083          	lw	ra,44(sp)
   101d0:	02812403          	lw	s0,40(sp)
   101d4:	03010113          	addi	sp,sp,48
   101d8:	00008067          	ret

000101dc <main>:
   101dc:	ff010113          	addi	sp,sp,-16
   101e0:	00112623          	sw	ra,12(sp)
   101e4:	00812423          	sw	s0,8(sp)
   101e8:	01010413          	addi	s0,sp,16
   101ec:	0001e7b7          	lui	a5,0x1e
   101f0:	d307a787          	flw	fa5,-720(a5) # 1dd30 <__clzsi2+0x44>
   101f4:	0001f7b7          	lui	a5,0x1f
   101f8:	21078613          	addi	a2,a5,528 # 1f210 <b>
   101fc:	0001f7b7          	lui	a5,0x1f
   10200:	01078593          	addi	a1,a5,16 # 1f010 <a>
   10204:	20f78553          	fmv.s	fa0,fa5
   10208:	08000513          	li	a0,128
   1020c:	034000ef          	jal	ra,10240 <saxpy>
   10210:	08000593          	li	a1,128
   10214:	0001f7b7          	lui	a5,0x1f
   10218:	21078513          	addi	a0,a5,528 # 1f210 <b>
   1021c:	f39ff0ef          	jal	ra,10154 <print_arr>
   10220:	00000793          	li	a5,0
   10224:	00078513          	mv	a0,a5
   10228:	00c12083          	lw	ra,12(sp)
   1022c:	00812403          	lw	s0,8(sp)
   10230:	01010113          	addi	sp,sp,16
   10234:	00008067          	ret
	...

00010240 <saxpy>:
   10240:	0d0572d7          	vsetvli	t0,a0,e32,m1,ta,ma
   10244:	40550533          	sub	a0,a0,t0
   10248:	0205e007          	vle32.v	v0,(a1)
   1024c:	00229293          	slli	t0,t0,0x2
   10250:	005585b3          	add	a1,a1,t0
   10254:	92055057          	vfmul.vf	v0,v0,fa0
   10258:	02066087          	vle32.v	v1,(a2)
   1025c:	02009057          	vfadd.vv	v0,v0,v1
   10260:	02066027          	vse32.v	v0,(a2)
   10264:	00560633          	add	a2,a2,t0
   10268:	fc051ce3          	bnez	a0,10240 <saxpy>
   1026c:	00008067          	ret
   10270:	0000                	unimp
	...

00010274 <__libc_init_array>:
   10274:	1141                	addi	sp,sp,-16
   10276:	c422                	sw	s0,8(sp)
   10278:	0001f7b7          	lui	a5,0x1f
   1027c:	0001f437          	lui	s0,0x1f
   10280:	c04a                	sw	s2,0(sp)
   10282:	00478793          	addi	a5,a5,4 # 1f004 <__init_array_start>
   10286:	00440713          	addi	a4,s0,4 # 1f004 <__init_array_start>
   1028a:	c606                	sw	ra,12(sp)
   1028c:	c226                	sw	s1,4(sp)
   1028e:	40e78933          	sub	s2,a5,a4
   10292:	00e78d63          	beq	a5,a4,102ac <__libc_init_array+0x38>
   10296:	40295913          	srai	s2,s2,0x2
   1029a:	00440413          	addi	s0,s0,4
   1029e:	4481                	li	s1,0
   102a0:	401c                	lw	a5,0(s0)
   102a2:	0485                	addi	s1,s1,1
   102a4:	0411                	addi	s0,s0,4
   102a6:	9782                	jalr	a5
   102a8:	ff24ece3          	bltu	s1,s2,102a0 <__libc_init_array+0x2c>
   102ac:	0001f437          	lui	s0,0x1f
   102b0:	0001f7b7          	lui	a5,0x1f
   102b4:	00c78793          	addi	a5,a5,12 # 1f00c <__do_global_dtors_aux_fini_array_entry>
   102b8:	00440713          	addi	a4,s0,4 # 1f004 <__init_array_start>
   102bc:	40e78933          	sub	s2,a5,a4
   102c0:	40295913          	srai	s2,s2,0x2
   102c4:	00e78b63          	beq	a5,a4,102da <__libc_init_array+0x66>
   102c8:	00440413          	addi	s0,s0,4
   102cc:	4481                	li	s1,0
   102ce:	401c                	lw	a5,0(s0)
   102d0:	0485                	addi	s1,s1,1
   102d2:	0411                	addi	s0,s0,4
   102d4:	9782                	jalr	a5
   102d6:	ff24ece3          	bltu	s1,s2,102ce <__libc_init_array+0x5a>
   102da:	40b2                	lw	ra,12(sp)
   102dc:	4422                	lw	s0,8(sp)
   102de:	4492                	lw	s1,4(sp)
   102e0:	4902                	lw	s2,0(sp)
   102e2:	0141                	addi	sp,sp,16
   102e4:	8082                	ret

000102e6 <memset>:
   102e6:	433d                	li	t1,15
   102e8:	872a                	mv	a4,a0
   102ea:	02c37363          	bgeu	t1,a2,10310 <memset+0x2a>
   102ee:	00f77793          	andi	a5,a4,15
   102f2:	efbd                	bnez	a5,10370 <memset+0x8a>
   102f4:	e5ad                	bnez	a1,1035e <memset+0x78>
   102f6:	ff067693          	andi	a3,a2,-16
   102fa:	8a3d                	andi	a2,a2,15
   102fc:	96ba                	add	a3,a3,a4
   102fe:	c30c                	sw	a1,0(a4)
   10300:	c34c                	sw	a1,4(a4)
   10302:	c70c                	sw	a1,8(a4)
   10304:	c74c                	sw	a1,12(a4)
   10306:	0741                	addi	a4,a4,16
   10308:	fed76be3          	bltu	a4,a3,102fe <memset+0x18>
   1030c:	e211                	bnez	a2,10310 <memset+0x2a>
   1030e:	8082                	ret
   10310:	40c306b3          	sub	a3,t1,a2
   10314:	068a                	slli	a3,a3,0x2
   10316:	00000297          	auipc	t0,0x0
   1031a:	9696                	add	a3,a3,t0
   1031c:	00a68067          	jr	10(a3)
   10320:	00b70723          	sb	a1,14(a4)
   10324:	00b706a3          	sb	a1,13(a4)
   10328:	00b70623          	sb	a1,12(a4)
   1032c:	00b705a3          	sb	a1,11(a4)
   10330:	00b70523          	sb	a1,10(a4)
   10334:	00b704a3          	sb	a1,9(a4)
   10338:	00b70423          	sb	a1,8(a4)
   1033c:	00b703a3          	sb	a1,7(a4)
   10340:	00b70323          	sb	a1,6(a4)
   10344:	00b702a3          	sb	a1,5(a4)
   10348:	00b70223          	sb	a1,4(a4)
   1034c:	00b701a3          	sb	a1,3(a4)
   10350:	00b70123          	sb	a1,2(a4)
   10354:	00b700a3          	sb	a1,1(a4)
   10358:	00b70023          	sb	a1,0(a4)
   1035c:	8082                	ret
   1035e:	0ff5f593          	zext.b	a1,a1
   10362:	00859693          	slli	a3,a1,0x8
   10366:	8dd5                	or	a1,a1,a3
   10368:	01059693          	slli	a3,a1,0x10
   1036c:	8dd5                	or	a1,a1,a3
   1036e:	b761                	j	102f6 <memset+0x10>
   10370:	00279693          	slli	a3,a5,0x2
   10374:	00000297          	auipc	t0,0x0
   10378:	9696                	add	a3,a3,t0
   1037a:	8286                	mv	t0,ra
   1037c:	fa8680e7          	jalr	-88(a3)
   10380:	8096                	mv	ra,t0
   10382:	17c1                	addi	a5,a5,-16
   10384:	8f1d                	sub	a4,a4,a5
   10386:	963e                	add	a2,a2,a5
   10388:	f8c374e3          	bgeu	t1,a2,10310 <memset+0x2a>
   1038c:	b7a5                	j	102f4 <memset+0xe>

0001038e <_printf_r>:
   1038e:	7139                	addi	sp,sp,-64
   10390:	d432                	sw	a2,40(sp)
   10392:	d636                	sw	a3,44(sp)
   10394:	d83a                	sw	a4,48(sp)
   10396:	da3e                	sw	a5,52(sp)
   10398:	dc42                	sw	a6,56(sp)
   1039a:	de46                	sw	a7,60(sp)
   1039c:	862e                	mv	a2,a1
   1039e:	450c                	lw	a1,8(a0)
   103a0:	1034                	addi	a3,sp,40
   103a2:	ce06                	sw	ra,28(sp)
   103a4:	c636                	sw	a3,12(sp)
   103a6:	2a29                	jal	104c0 <_vfprintf_r>
   103a8:	40f2                	lw	ra,28(sp)
   103aa:	6121                	addi	sp,sp,64
   103ac:	8082                	ret

000103ae <printf>:
   103ae:	5c01a303          	lw	t1,1472(gp) # 1fdd0 <_impure_ptr>
   103b2:	7139                	addi	sp,sp,-64
   103b4:	d432                	sw	a2,40(sp)
   103b6:	d636                	sw	a3,44(sp)
   103b8:	d22e                	sw	a1,36(sp)
   103ba:	d83a                	sw	a4,48(sp)
   103bc:	da3e                	sw	a5,52(sp)
   103be:	dc42                	sw	a6,56(sp)
   103c0:	de46                	sw	a7,60(sp)
   103c2:	00832583          	lw	a1,8(t1) # 10152 <frame_dummy+0x1a>
   103c6:	1054                	addi	a3,sp,36
   103c8:	862a                	mv	a2,a0
   103ca:	851a                	mv	a0,t1
   103cc:	ce06                	sw	ra,28(sp)
   103ce:	c636                	sw	a3,12(sp)
   103d0:	28c5                	jal	104c0 <_vfprintf_r>
   103d2:	40f2                	lw	ra,28(sp)
   103d4:	6121                	addi	sp,sp,64
   103d6:	8082                	ret

000103d8 <_puts_r>:
   103d8:	7139                	addi	sp,sp,-64
   103da:	dc22                	sw	s0,56(sp)
   103dc:	842a                	mv	s0,a0
   103de:	852e                	mv	a0,a1
   103e0:	da26                	sw	s1,52(sp)
   103e2:	de06                	sw	ra,60(sp)
   103e4:	84ae                	mv	s1,a1
   103e6:	289d                	jal	1045c <strlen>
   103e8:	67f9                	lui	a5,0x1e
   103ea:	d3478793          	addi	a5,a5,-716 # 1dd34 <__clzsi2+0x48>
   103ee:	d43e                	sw	a5,40(sp)
   103f0:	4785                	li	a5,1
   103f2:	d63e                	sw	a5,44(sp)
   103f4:	5c18                	lw	a4,56(s0)
   103f6:	101c                	addi	a5,sp,32
   103f8:	00150693          	addi	a3,a0,1 # 1f001 <__FRAME_END__+0x1>
   103fc:	ca3e                	sw	a5,20(sp)
   103fe:	4789                	li	a5,2
   10400:	d026                	sw	s1,32(sp)
   10402:	d22a                	sw	a0,36(sp)
   10404:	ce36                	sw	a3,28(sp)
   10406:	cc3e                	sw	a5,24(sp)
   10408:	440c                	lw	a1,8(s0)
   1040a:	cf1d                	beqz	a4,10448 <_puts_r+0x70>
   1040c:	00c59783          	lh	a5,12(a1)
   10410:	01279713          	slli	a4,a5,0x12
   10414:	00074b63          	bltz	a4,1042a <_puts_r+0x52>
   10418:	51f8                	lw	a4,100(a1)
   1041a:	6689                	lui	a3,0x2
   1041c:	8fd5                	or	a5,a5,a3
   1041e:	76f9                	lui	a3,0xffffe
   10420:	16fd                	addi	a3,a3,-1 # ffffdfff <__BSS_END__+0xfffde1c7>
   10422:	8f75                	and	a4,a4,a3
   10424:	00f59623          	sh	a5,12(a1)
   10428:	d1f8                	sw	a4,100(a1)
   1042a:	0850                	addi	a2,sp,20
   1042c:	8522                	mv	a0,s0
   1042e:	69c020ef          	jal	ra,12aca <__sfvwrite_r>
   10432:	50f2                	lw	ra,60(sp)
   10434:	5462                	lw	s0,56(sp)
   10436:	00153513          	seqz	a0,a0
   1043a:	40a00533          	neg	a0,a0
   1043e:	892d                	andi	a0,a0,11
   10440:	54d2                	lw	s1,52(sp)
   10442:	157d                	addi	a0,a0,-1
   10444:	6121                	addi	sp,sp,64
   10446:	8082                	ret
   10448:	8522                	mv	a0,s0
   1044a:	c62e                	sw	a1,12(sp)
   1044c:	336020ef          	jal	ra,12782 <__sinit>
   10450:	45b2                	lw	a1,12(sp)
   10452:	bf6d                	j	1040c <_puts_r+0x34>

00010454 <puts>:
   10454:	85aa                	mv	a1,a0
   10456:	5c01a503          	lw	a0,1472(gp) # 1fdd0 <_impure_ptr>
   1045a:	bfbd                	j	103d8 <_puts_r>

0001045c <strlen>:
   1045c:	00357793          	andi	a5,a0,3
   10460:	872a                	mv	a4,a0
   10462:	ef9d                	bnez	a5,104a0 <strlen+0x44>
   10464:	7f7f86b7          	lui	a3,0x7f7f8
   10468:	f7f68693          	addi	a3,a3,-129 # 7f7f7f7f <__BSS_END__+0x7f7d8147>
   1046c:	55fd                	li	a1,-1
   1046e:	4310                	lw	a2,0(a4)
   10470:	0711                	addi	a4,a4,4
   10472:	00d677b3          	and	a5,a2,a3
   10476:	97b6                	add	a5,a5,a3
   10478:	8fd1                	or	a5,a5,a2
   1047a:	8fd5                	or	a5,a5,a3
   1047c:	feb789e3          	beq	a5,a1,1046e <strlen+0x12>
   10480:	ffc74683          	lbu	a3,-4(a4)
   10484:	40a707b3          	sub	a5,a4,a0
   10488:	ca8d                	beqz	a3,104ba <strlen+0x5e>
   1048a:	ffd74683          	lbu	a3,-3(a4)
   1048e:	c29d                	beqz	a3,104b4 <strlen+0x58>
   10490:	ffe74503          	lbu	a0,-2(a4)
   10494:	00a03533          	snez	a0,a0
   10498:	953e                	add	a0,a0,a5
   1049a:	1579                	addi	a0,a0,-2
   1049c:	8082                	ret
   1049e:	d2f9                	beqz	a3,10464 <strlen+0x8>
   104a0:	00074783          	lbu	a5,0(a4)
   104a4:	0705                	addi	a4,a4,1
   104a6:	00377693          	andi	a3,a4,3
   104aa:	fbf5                	bnez	a5,1049e <strlen+0x42>
   104ac:	8f09                	sub	a4,a4,a0
   104ae:	fff70513          	addi	a0,a4,-1
   104b2:	8082                	ret
   104b4:	ffd78513          	addi	a0,a5,-3
   104b8:	8082                	ret
   104ba:	ffc78513          	addi	a0,a5,-4
   104be:	8082                	ret

000104c0 <_vfprintf_r>:
   104c0:	7141                	addi	sp,sp,-496
   104c2:	1e112623          	sw	ra,492(sp)
   104c6:	1e812423          	sw	s0,488(sp)
   104ca:	c42e                	sw	a1,8(sp)
   104cc:	c632                	sw	a2,12(sp)
   104ce:	cc36                	sw	a3,24(sp)
   104d0:	1e912223          	sw	s1,484(sp)
   104d4:	1f212023          	sw	s2,480(sp)
   104d8:	1d312e23          	sw	s3,476(sp)
   104dc:	1d412c23          	sw	s4,472(sp)
   104e0:	1d512a23          	sw	s5,468(sp)
   104e4:	1d612823          	sw	s6,464(sp)
   104e8:	1d712623          	sw	s7,460(sp)
   104ec:	1d812423          	sw	s8,456(sp)
   104f0:	1d912223          	sw	s9,452(sp)
   104f4:	1da12023          	sw	s10,448(sp)
   104f8:	1bb12e23          	sw	s11,444(sp)
   104fc:	842a                	mv	s0,a0
   104fe:	d82a                	sw	a0,48(sp)
   10500:	28d040ef          	jal	ra,14f8c <_localeconv_r>
   10504:	411c                	lw	a5,0(a0)
   10506:	853e                	mv	a0,a5
   10508:	dc3e                	sw	a5,56(sp)
   1050a:	3f89                	jal	1045c <strlen>
   1050c:	da2a                	sw	a0,52(sp)
   1050e:	d982                	sw	zero,240(sp)
   10510:	db82                	sw	zero,244(sp)
   10512:	dd82                	sw	zero,248(sp)
   10514:	df82                	sw	zero,252(sp)
   10516:	4fb2                	lw	t6,12(sp)
   10518:	c401                	beqz	s0,10520 <_vfprintf_r+0x60>
   1051a:	5c1c                	lw	a5,56(s0)
   1051c:	5e078b63          	beqz	a5,10b12 <_vfprintf_r+0x652>
   10520:	4622                	lw	a2,8(sp)
   10522:	00c61783          	lh	a5,12(a2)
   10526:	01279713          	slli	a4,a5,0x12
   1052a:	00074d63          	bltz	a4,10544 <_vfprintf_r+0x84>
   1052e:	5278                	lw	a4,100(a2)
   10530:	6689                	lui	a3,0x2
   10532:	8fd5                	or	a5,a5,a3
   10534:	76f9                	lui	a3,0xffffe
   10536:	07c2                	slli	a5,a5,0x10
   10538:	16fd                	addi	a3,a3,-1 # ffffdfff <__BSS_END__+0xfffde1c7>
   1053a:	87c1                	srai	a5,a5,0x10
   1053c:	8f75                	and	a4,a4,a3
   1053e:	00f61623          	sh	a5,12(a2)
   10542:	d278                	sw	a4,100(a2)
   10544:	0087f713          	andi	a4,a5,8
   10548:	20070d63          	beqz	a4,10762 <_vfprintf_r+0x2a2>
   1054c:	4722                	lw	a4,8(sp)
   1054e:	4b18                	lw	a4,16(a4)
   10550:	20070963          	beqz	a4,10762 <_vfprintf_r+0x2a2>
   10554:	8be9                	andi	a5,a5,26
   10556:	4729                	li	a4,10
   10558:	22e78563          	beq	a5,a4,10782 <_vfprintf_r+0x2c2>
   1055c:	67f9                	lui	a5,0x1e
   1055e:	d7c78793          	addi	a5,a5,-644 # 1dd7c <__clzsi2+0x90>
   10562:	ce3e                	sw	a5,28(sp)
   10564:	67f9                	lui	a5,0x1e
   10566:	f8078793          	addi	a5,a5,-128 # 1df80 <zeroes.0>
   1056a:	8c7e                	mv	s8,t6
   1056c:	c63e                	sw	a5,12(sp)
   1056e:	000c4783          	lbu	a5,0(s8)
   10572:	10c10b13          	addi	s6,sp,268
   10576:	d3da                	sw	s6,228(sp)
   10578:	d782                	sw	zero,236(sp)
   1057a:	d582                	sw	zero,232(sp)
   1057c:	d202                	sw	zero,36(sp)
   1057e:	de02                	sw	zero,60(sp)
   10580:	c282                	sw	zero,68(sp)
   10582:	c082                	sw	zero,64(sp)
   10584:	c682                	sw	zero,76(sp)
   10586:	c482                	sw	zero,72(sp)
   10588:	c802                	sw	zero,16(sp)
   1058a:	59c2                	lw	s3,48(sp)
   1058c:	845a                	mv	s0,s6
   1058e:	18078163          	beqz	a5,10710 <_vfprintf_r+0x250>
   10592:	84e2                	mv	s1,s8
   10594:	02500713          	li	a4,37
   10598:	30e78063          	beq	a5,a4,10898 <_vfprintf_r+0x3d8>
   1059c:	0014c783          	lbu	a5,1(s1)
   105a0:	0485                	addi	s1,s1,1
   105a2:	fbfd                	bnez	a5,10598 <_vfprintf_r+0xd8>
   105a4:	41848933          	sub	s2,s1,s8
   105a8:	17848463          	beq	s1,s8,10710 <_vfprintf_r+0x250>
   105ac:	573e                	lw	a4,236(sp)
   105ae:	57ae                	lw	a5,232(sp)
   105b0:	01842023          	sw	s8,0(s0)
   105b4:	974a                	add	a4,a4,s2
   105b6:	0785                	addi	a5,a5,1
   105b8:	01242223          	sw	s2,4(s0)
   105bc:	d7ba                	sw	a4,236(sp)
   105be:	d5be                	sw	a5,232(sp)
   105c0:	471d                	li	a4,7
   105c2:	0421                	addi	s0,s0,8
   105c4:	2ef74163          	blt	a4,a5,108a6 <_vfprintf_r+0x3e6>
   105c8:	4742                	lw	a4,16(sp)
   105ca:	0004c783          	lbu	a5,0(s1)
   105ce:	974a                	add	a4,a4,s2
   105d0:	c83a                	sw	a4,16(sp)
   105d2:	12078f63          	beqz	a5,10710 <_vfprintf_r+0x250>
   105d6:	0014c883          	lbu	a7,1(s1)
   105da:	0c0103a3          	sb	zero,199(sp)
   105de:	0485                	addi	s1,s1,1
   105e0:	597d                	li	s2,-1
   105e2:	4a01                	li	s4,0
   105e4:	4b81                	li	s7,0
   105e6:	05a00c93          	li	s9,90
   105ea:	0485                	addi	s1,s1,1
   105ec:	fe088793          	addi	a5,a7,-32
   105f0:	02fceb63          	bltu	s9,a5,10626 <_vfprintf_r+0x166>
   105f4:	4772                	lw	a4,28(sp)
   105f6:	078a                	slli	a5,a5,0x2
   105f8:	97ba                	add	a5,a5,a4
   105fa:	439c                	lw	a5,0(a5)
   105fc:	8782                	jr	a5
   105fe:	4a01                	li	s4,0
   10600:	fd088793          	addi	a5,a7,-48
   10604:	46a5                	li	a3,9
   10606:	0004c883          	lbu	a7,0(s1)
   1060a:	002a1713          	slli	a4,s4,0x2
   1060e:	9a3a                	add	s4,s4,a4
   10610:	0a06                	slli	s4,s4,0x1
   10612:	9a3e                	add	s4,s4,a5
   10614:	fd088793          	addi	a5,a7,-48
   10618:	0485                	addi	s1,s1,1
   1061a:	fef6f6e3          	bgeu	a3,a5,10606 <_vfprintf_r+0x146>
   1061e:	fe088793          	addi	a5,a7,-32
   10622:	fcfcf9e3          	bgeu	s9,a5,105f4 <_vfprintf_r+0x134>
   10626:	0e088563          	beqz	a7,10710 <_vfprintf_r+0x250>
   1062a:	15110623          	sb	a7,332(sp)
   1062e:	0c0103a3          	sb	zero,199(sp)
   10632:	4c85                	li	s9,1
   10634:	4d05                	li	s10,1
   10636:	14c10c13          	addi	s8,sp,332
   1063a:	ca02                	sw	zero,20(sp)
   1063c:	4901                	li	s2,0
   1063e:	d602                	sw	zero,44(sp)
   10640:	d402                	sw	zero,40(sp)
   10642:	d002                	sw	zero,32(sp)
   10644:	002bf293          	andi	t0,s7,2
   10648:	00028363          	beqz	t0,1064e <_vfprintf_r+0x18e>
   1064c:	0c89                	addi	s9,s9,2
   1064e:	084bfd93          	andi	s11,s7,132
   10652:	000d9663          	bnez	s11,1065e <_vfprintf_r+0x19e>
   10656:	419a0733          	sub	a4,s4,s9
   1065a:	0ce041e3          	bgtz	a4,10f1c <_vfprintf_r+0xa5c>
   1065e:	0c714703          	lbu	a4,199(sp)
   10662:	c305                	beqz	a4,10682 <_vfprintf_r+0x1c2>
   10664:	563e                	lw	a2,236(sp)
   10666:	572e                	lw	a4,232(sp)
   10668:	0c710593          	addi	a1,sp,199
   1066c:	0605                	addi	a2,a2,1
   1066e:	c00c                	sw	a1,0(s0)
   10670:	0705                	addi	a4,a4,1
   10672:	4585                	li	a1,1
   10674:	c04c                	sw	a1,4(s0)
   10676:	d7b2                	sw	a2,236(sp)
   10678:	d5ba                	sw	a4,232(sp)
   1067a:	461d                	li	a2,7
   1067c:	0421                	addi	s0,s0,8
   1067e:	2ee64863          	blt	a2,a4,1096e <_vfprintf_r+0x4ae>
   10682:	02028063          	beqz	t0,106a2 <_vfprintf_r+0x1e2>
   10686:	563e                	lw	a2,236(sp)
   10688:	572e                	lw	a4,232(sp)
   1068a:	01bc                	addi	a5,sp,200
   1068c:	0609                	addi	a2,a2,2
   1068e:	0705                	addi	a4,a4,1
   10690:	4589                	li	a1,2
   10692:	c01c                	sw	a5,0(s0)
   10694:	c04c                	sw	a1,4(s0)
   10696:	d7b2                	sw	a2,236(sp)
   10698:	d5ba                	sw	a4,232(sp)
   1069a:	461d                	li	a2,7
   1069c:	0421                	addi	s0,s0,8
   1069e:	10e64be3          	blt	a2,a4,10fb4 <_vfprintf_r+0xaf4>
   106a2:	08000713          	li	a4,128
   106a6:	72ed8e63          	beq	s11,a4,10de2 <_vfprintf_r+0x922>
   106aa:	41a90933          	sub	s2,s2,s10
   106ae:	7d204363          	bgtz	s2,10e74 <_vfprintf_r+0x9b4>
   106b2:	100bf713          	andi	a4,s7,256
   106b6:	62071263          	bnez	a4,10cda <_vfprintf_r+0x81a>
   106ba:	573e                	lw	a4,236(sp)
   106bc:	562e                	lw	a2,232(sp)
   106be:	01842023          	sw	s8,0(s0)
   106c2:	976a                	add	a4,a4,s10
   106c4:	0605                	addi	a2,a2,1
   106c6:	01a42223          	sw	s10,4(s0)
   106ca:	d7ba                	sw	a4,236(sp)
   106cc:	d5b2                	sw	a2,232(sp)
   106ce:	459d                	li	a1,7
   106d0:	36c5c363          	blt	a1,a2,10a36 <_vfprintf_r+0x576>
   106d4:	0421                	addi	s0,s0,8
   106d6:	004bf793          	andi	a5,s7,4
   106da:	c789                	beqz	a5,106e4 <_vfprintf_r+0x224>
   106dc:	419a0933          	sub	s2,s4,s9
   106e0:	0f2045e3          	bgtz	s2,10fca <_vfprintf_r+0xb0a>
   106e4:	8352                	mv	t1,s4
   106e6:	019a5363          	bge	s4,s9,106ec <_vfprintf_r+0x22c>
   106ea:	8366                	mv	t1,s9
   106ec:	47c2                	lw	a5,16(sp)
   106ee:	979a                	add	a5,a5,t1
   106f0:	c83e                	sw	a5,16(sp)
   106f2:	000714e3          	bnez	a4,10efa <_vfprintf_r+0xa3a>
   106f6:	47d2                	lw	a5,20(sp)
   106f8:	d582                	sw	zero,232(sp)
   106fa:	c789                	beqz	a5,10704 <_vfprintf_r+0x244>
   106fc:	45d2                	lw	a1,20(sp)
   106fe:	854e                	mv	a0,s3
   10700:	1aa020ef          	jal	ra,128aa <_free_r>
   10704:	845a                	mv	s0,s6
   10706:	8c26                	mv	s8,s1
   10708:	000c4783          	lbu	a5,0(s8)
   1070c:	e80793e3          	bnez	a5,10592 <_vfprintf_r+0xd2>
   10710:	57be                	lw	a5,236(sp)
   10712:	c399                	beqz	a5,10718 <_vfprintf_r+0x258>
   10714:	3100106f          	j	11a24 <_vfprintf_r+0x1564>
   10718:	47a2                	lw	a5,8(sp)
   1071a:	00c7d783          	lhu	a5,12(a5)
   1071e:	0407f793          	andi	a5,a5,64
   10722:	c399                	beqz	a5,10728 <_vfprintf_r+0x268>
   10724:	7b80106f          	j	11edc <_vfprintf_r+0x1a1c>
   10728:	1ec12083          	lw	ra,492(sp)
   1072c:	1e812403          	lw	s0,488(sp)
   10730:	4542                	lw	a0,16(sp)
   10732:	1e412483          	lw	s1,484(sp)
   10736:	1e012903          	lw	s2,480(sp)
   1073a:	1dc12983          	lw	s3,476(sp)
   1073e:	1d812a03          	lw	s4,472(sp)
   10742:	1d412a83          	lw	s5,468(sp)
   10746:	1d012b03          	lw	s6,464(sp)
   1074a:	1cc12b83          	lw	s7,460(sp)
   1074e:	1c812c03          	lw	s8,456(sp)
   10752:	1c412c83          	lw	s9,452(sp)
   10756:	1c012d03          	lw	s10,448(sp)
   1075a:	1bc12d83          	lw	s11,444(sp)
   1075e:	617d                	addi	sp,sp,496
   10760:	8082                	ret
   10762:	45a2                	lw	a1,8(sp)
   10764:	5542                	lw	a0,48(sp)
   10766:	c67e                	sw	t6,12(sp)
   10768:	223010ef          	jal	ra,1218a <__swsetup_r>
   1076c:	4fb2                	lw	t6,12(sp)
   1076e:	c119                	beqz	a0,10774 <_vfprintf_r+0x2b4>
   10770:	76c0106f          	j	11edc <_vfprintf_r+0x1a1c>
   10774:	47a2                	lw	a5,8(sp)
   10776:	4729                	li	a4,10
   10778:	00c79783          	lh	a5,12(a5)
   1077c:	8be9                	andi	a5,a5,26
   1077e:	dce79fe3          	bne	a5,a4,1055c <_vfprintf_r+0x9c>
   10782:	47a2                	lw	a5,8(sp)
   10784:	00e79783          	lh	a5,14(a5)
   10788:	dc07cae3          	bltz	a5,1055c <_vfprintf_r+0x9c>
   1078c:	46e2                	lw	a3,24(sp)
   1078e:	45a2                	lw	a1,8(sp)
   10790:	5542                	lw	a0,48(sp)
   10792:	867e                	mv	a2,t6
   10794:	163010ef          	jal	ra,120f6 <__sbprintf>
   10798:	c82a                	sw	a0,16(sp)
   1079a:	b779                	j	10728 <_vfprintf_r+0x268>
   1079c:	854e                	mv	a0,s3
   1079e:	7ee040ef          	jal	ra,14f8c <_localeconv_r>
   107a2:	415c                	lw	a5,4(a0)
   107a4:	853e                	mv	a0,a5
   107a6:	c4be                	sw	a5,72(sp)
   107a8:	3955                	jal	1045c <strlen>
   107aa:	87aa                	mv	a5,a0
   107ac:	854e                	mv	a0,s3
   107ae:	8abe                	mv	s5,a5
   107b0:	c6be                	sw	a5,76(sp)
   107b2:	7da040ef          	jal	ra,14f8c <_localeconv_r>
   107b6:	451c                	lw	a5,8(a0)
   107b8:	c0be                	sw	a5,64(sp)
   107ba:	2c0a96e3          	bnez	s5,11286 <_vfprintf_r+0xdc6>
   107be:	0004c883          	lbu	a7,0(s1)
   107c2:	b525                	j	105ea <_vfprintf_r+0x12a>
   107c4:	0004c883          	lbu	a7,0(s1)
   107c8:	020beb93          	ori	s7,s7,32
   107cc:	bd39                	j	105ea <_vfprintf_r+0x12a>
   107ce:	010beb93          	ori	s7,s7,16
   107d2:	020bf713          	andi	a4,s7,32
   107d6:	28070c63          	beqz	a4,10a6e <_vfprintf_r+0x5ae>
   107da:	47e2                	lw	a5,24(sp)
   107dc:	00778a93          	addi	s5,a5,7
   107e0:	ff8afa93          	andi	s5,s5,-8
   107e4:	004aa703          	lw	a4,4(s5)
   107e8:	000aac83          	lw	s9,0(s5)
   107ec:	008a8793          	addi	a5,s5,8
   107f0:	cc3e                	sw	a5,24(sp)
   107f2:	8d3a                	mv	s10,a4
   107f4:	2a074263          	bltz	a4,10a98 <_vfprintf_r+0x5d8>
   107f8:	577d                	li	a4,-1
   107fa:	8dde                	mv	s11,s7
   107fc:	38e90763          	beq	s2,a4,10b8a <_vfprintf_r+0x6ca>
   10800:	01ace733          	or	a4,s9,s10
   10804:	f7fbfd93          	andi	s11,s7,-129
   10808:	38071163          	bnez	a4,10b8a <_vfprintf_r+0x6ca>
   1080c:	38091463          	bnez	s2,10b94 <_vfprintf_r+0x6d4>
   10810:	4d01                	li	s10,0
   10812:	8bee                	mv	s7,s11
   10814:	1b010c13          	addi	s8,sp,432
   10818:	0c714703          	lbu	a4,199(sp)
   1081c:	8cea                	mv	s9,s10
   1081e:	012d5363          	bge	s10,s2,10824 <_vfprintf_r+0x364>
   10822:	8cca                	mv	s9,s2
   10824:	ca02                	sw	zero,20(sp)
   10826:	d602                	sw	zero,44(sp)
   10828:	d402                	sw	zero,40(sp)
   1082a:	d002                	sw	zero,32(sp)
   1082c:	e0070ce3          	beqz	a4,10644 <_vfprintf_r+0x184>
   10830:	0c85                	addi	s9,s9,1
   10832:	bd09                	j	10644 <_vfprintf_r+0x184>
   10834:	010beb93          	ori	s7,s7,16
   10838:	020bf713          	andi	a4,s7,32
   1083c:	20070763          	beqz	a4,10a4a <_vfprintf_r+0x58a>
   10840:	47e2                	lw	a5,24(sp)
   10842:	00778a93          	addi	s5,a5,7
   10846:	ff8afa93          	andi	s5,s5,-8
   1084a:	000aac83          	lw	s9,0(s5)
   1084e:	004aad03          	lw	s10,4(s5)
   10852:	008a8793          	addi	a5,s5,8
   10856:	cc3e                	sw	a5,24(sp)
   10858:	bffbfd93          	andi	s11,s7,-1025
   1085c:	4681                	li	a3,0
   1085e:	4781                	li	a5,0
   10860:	0cf103a3          	sb	a5,199(sp)
   10864:	57fd                	li	a5,-1
   10866:	24f90a63          	beq	s2,a5,10aba <_vfprintf_r+0x5fa>
   1086a:	01ace733          	or	a4,s9,s10
   1086e:	f7fdfb93          	andi	s7,s11,-129
   10872:	6a071363          	bnez	a4,10f18 <_vfprintf_r+0xa58>
   10876:	52091263          	bnez	s2,10d9a <_vfprintf_r+0x8da>
   1087a:	180692e3          	bnez	a3,111fe <_vfprintf_r+0xd3e>
   1087e:	001dfd13          	andi	s10,s11,1
   10882:	1b010c13          	addi	s8,sp,432
   10886:	f80d09e3          	beqz	s10,10818 <_vfprintf_r+0x358>
   1088a:	03000713          	li	a4,48
   1088e:	1ae107a3          	sb	a4,431(sp)
   10892:	1af10c13          	addi	s8,sp,431
   10896:	b749                	j	10818 <_vfprintf_r+0x358>
   10898:	41848933          	sub	s2,s1,s8
   1089c:	d18498e3          	bne	s1,s8,105ac <_vfprintf_r+0xec>
   108a0:	0004c783          	lbu	a5,0(s1)
   108a4:	b33d                	j	105d2 <_vfprintf_r+0x112>
   108a6:	45a2                	lw	a1,8(sp)
   108a8:	11d0                	addi	a2,sp,228
   108aa:	854e                	mv	a0,s3
   108ac:	206080ef          	jal	ra,18ab2 <__sprint_r>
   108b0:	e60514e3          	bnez	a0,10718 <_vfprintf_r+0x258>
   108b4:	845a                	mv	s0,s6
   108b6:	bb09                	j	105c8 <_vfprintf_r+0x108>
   108b8:	008bf713          	andi	a4,s7,8
   108bc:	180719e3          	bnez	a4,1124e <_vfprintf_r+0xd8e>
   108c0:	47e2                	lw	a5,24(sp)
   108c2:	1908                	addi	a0,sp,176
   108c4:	ca46                	sw	a7,20(sp)
   108c6:	00778a93          	addi	s5,a5,7
   108ca:	ff8afa93          	andi	s5,s5,-8
   108ce:	000ab507          	fld	fa0,0(s5)
   108d2:	008a8793          	addi	a5,s5,8
   108d6:	cc3e                	sw	a5,24(sp)
   108d8:	6650c0ef          	jal	ra,1d73c <__extenddftf2>
   108dc:	55ca                	lw	a1,176(sp)
   108de:	565a                	lw	a2,180(sp)
   108e0:	56ea                	lw	a3,184(sp)
   108e2:	577a                	lw	a4,188(sp)
   108e4:	48d2                	lw	a7,20(sp)
   108e6:	1988                	addi	a0,sp,240
   108e8:	ca46                	sw	a7,20(sp)
   108ea:	dfba                	sw	a4,252(sp)
   108ec:	d9ae                	sw	a1,240(sp)
   108ee:	dbb2                	sw	a2,244(sp)
   108f0:	ddb6                	sw	a3,248(sp)
   108f2:	64a040ef          	jal	ra,14f3c <_ldcheck>
   108f6:	c7aa                	sw	a0,204(sp)
   108f8:	4709                	li	a4,2
   108fa:	48d2                	lw	a7,20(sp)
   108fc:	42e50fe3          	beq	a0,a4,1153a <_vfprintf_r+0x107a>
   10900:	4705                	li	a4,1
   10902:	50e508e3          	beq	a0,a4,11612 <_vfprintf_r+0x1152>
   10906:	06100713          	li	a4,97
   1090a:	00e89463          	bne	a7,a4,10912 <_vfprintf_r+0x452>
   1090e:	4e40106f          	j	11df2 <_vfprintf_r+0x1932>
   10912:	04100713          	li	a4,65
   10916:	00e89463          	bne	a7,a4,1091e <_vfprintf_r+0x45e>
   1091a:	1300106f          	j	11a4a <_vfprintf_r+0x158a>
   1091e:	577d                	li	a4,-1
   10920:	00e91463          	bne	s2,a4,10928 <_vfprintf_r+0x468>
   10924:	6bc0106f          	j	11fe0 <_vfprintf_r+0x1b20>
   10928:	fdf8f713          	andi	a4,a7,-33
   1092c:	04700693          	li	a3,71
   10930:	00d71463          	bne	a4,a3,10938 <_vfprintf_r+0x478>
   10934:	69e0106f          	j	11fd2 <_vfprintf_r+0x1b12>
   10938:	5dfe                	lw	s11,252(sp)
   1093a:	100be793          	ori	a5,s7,256
   1093e:	cebe                	sw	a5,92(sp)
   10940:	d65e                	sw	s7,44(sp)
   10942:	5f4e                	lw	t5,240(sp)
   10944:	5ede                	lw	t4,244(sp)
   10946:	5e6e                	lw	t3,248(sp)
   10948:	000dd463          	bgez	s11,10950 <_vfprintf_r+0x490>
   1094c:	4700106f          	j	11dbc <_vfprintf_r+0x18fc>
   10950:	d082                	sw	zero,96(sp)
   10952:	ca02                	sw	zero,20(sp)
   10954:	fbf88793          	addi	a5,a7,-65
   10958:	02500713          	li	a4,37
   1095c:	6cf765e3          	bltu	a4,a5,11826 <_vfprintf_r+0x1366>
   10960:	6779                	lui	a4,0x1e
   10962:	078a                	slli	a5,a5,0x2
   10964:	ee870713          	addi	a4,a4,-280 # 1dee8 <__clzsi2+0x1fc>
   10968:	97ba                	add	a5,a5,a4
   1096a:	439c                	lw	a5,0(a5)
   1096c:	8782                	jr	a5
   1096e:	45a2                	lw	a1,8(sp)
   10970:	11d0                	addi	a2,sp,228
   10972:	854e                	mv	a0,s3
   10974:	cac6                	sw	a7,84(sp)
   10976:	c896                	sw	t0,80(sp)
   10978:	13a080ef          	jal	ra,18ab2 <__sprint_r>
   1097c:	58051663          	bnez	a0,10f08 <_vfprintf_r+0xa48>
   10980:	48d6                	lw	a7,84(sp)
   10982:	42c6                	lw	t0,80(sp)
   10984:	845a                	mv	s0,s6
   10986:	b9f5                	j	10682 <_vfprintf_r+0x1c2>
   10988:	5792                	lw	a5,36(sp)
   1098a:	4585                	li	a1,1
   1098c:	00840d13          	addi	s10,s0,8
   10990:	7af5dd63          	bge	a1,a5,1114a <_vfprintf_r+0xc8a>
   10994:	573e                	lw	a4,236(sp)
   10996:	562e                	lw	a2,232(sp)
   10998:	4585                	li	a1,1
   1099a:	0705                	addi	a4,a4,1
   1099c:	0605                	addi	a2,a2,1
   1099e:	c04c                	sw	a1,4(s0)
   109a0:	01842023          	sw	s8,0(s0)
   109a4:	d7ba                	sw	a4,236(sp)
   109a6:	d5b2                	sw	a2,232(sp)
   109a8:	459d                	li	a1,7
   109aa:	20c5c5e3          	blt	a1,a2,113b4 <_vfprintf_r+0xef4>
   109ae:	57d2                	lw	a5,52(sp)
   109b0:	00160913          	addi	s2,a2,1
   109b4:	d5ca                	sw	s2,232(sp)
   109b6:	00e78db3          	add	s11,a5,a4
   109ba:	5762                	lw	a4,56(sp)
   109bc:	00fd2223          	sw	a5,4(s10)
   109c0:	d7ee                	sw	s11,236(sp)
   109c2:	00ed2023          	sw	a4,0(s10)
   109c6:	471d                	li	a4,7
   109c8:	0d21                	addi	s10,s10,8
   109ca:	212741e3          	blt	a4,s2,113cc <_vfprintf_r+0xf0c>
   109ce:	574e                	lw	a4,240(sp)
   109d0:	110c                	addi	a1,sp,160
   109d2:	1908                	addi	a0,sp,176
   109d4:	d93a                	sw	a4,176(sp)
   109d6:	575e                	lw	a4,244(sp)
   109d8:	d102                	sw	zero,160(sp)
   109da:	d302                	sw	zero,164(sp)
   109dc:	db3a                	sw	a4,180(sp)
   109de:	576e                	lw	a4,248(sp)
   109e0:	d502                	sw	zero,168(sp)
   109e2:	d702                	sw	zero,172(sp)
   109e4:	dd3a                	sw	a4,184(sp)
   109e6:	577e                	lw	a4,252(sp)
   109e8:	df3a                	sw	a4,188(sp)
   109ea:	1cf0a0ef          	jal	ra,1b3b8 <__eqtf2>
   109ee:	5792                	lw	a5,36(sp)
   109f0:	fff78413          	addi	s0,a5,-1
   109f4:	78050863          	beqz	a0,11184 <_vfprintf_r+0xcc4>
   109f8:	001c0f93          	addi	t6,s8,1
   109fc:	0905                	addi	s2,s2,1
   109fe:	9da2                	add	s11,s11,s0
   10a00:	01fd2023          	sw	t6,0(s10)
   10a04:	008d2223          	sw	s0,4(s10)
   10a08:	d7ee                	sw	s11,236(sp)
   10a0a:	d5ca                	sw	s2,232(sp)
   10a0c:	471d                	li	a4,7
   10a0e:	0d21                	addi	s10,s10,8
   10a10:	75274f63          	blt	a4,s2,1116e <_vfprintf_r+0xcae>
   10a14:	4796                	lw	a5,68(sp)
   10a16:	09cc                	addi	a1,sp,212
   10a18:	00190613          	addi	a2,s2,1
   10a1c:	01b78733          	add	a4,a5,s11
   10a20:	00bd2023          	sw	a1,0(s10)
   10a24:	00fd2223          	sw	a5,4(s10)
   10a28:	d7ba                	sw	a4,236(sp)
   10a2a:	d5b2                	sw	a2,232(sp)
   10a2c:	459d                	li	a1,7
   10a2e:	008d0413          	addi	s0,s10,8
   10a32:	cac5d2e3          	bge	a1,a2,106d6 <_vfprintf_r+0x216>
   10a36:	45a2                	lw	a1,8(sp)
   10a38:	11d0                	addi	a2,sp,228
   10a3a:	854e                	mv	a0,s3
   10a3c:	076080ef          	jal	ra,18ab2 <__sprint_r>
   10a40:	4c051463          	bnez	a0,10f08 <_vfprintf_r+0xa48>
   10a44:	573e                	lw	a4,236(sp)
   10a46:	845a                	mv	s0,s6
   10a48:	b179                	j	106d6 <_vfprintf_r+0x216>
   10a4a:	47e2                	lw	a5,24(sp)
   10a4c:	010bf713          	andi	a4,s7,16
   10a50:	0007ac83          	lw	s9,0(a5)
   10a54:	0791                	addi	a5,a5,4
   10a56:	cc3e                	sw	a5,24(sp)
   10a58:	7c071f63          	bnez	a4,11236 <_vfprintf_r+0xd76>
   10a5c:	040bf713          	andi	a4,s7,64
   10a60:	7c070763          	beqz	a4,1122e <_vfprintf_r+0xd6e>
   10a64:	0cc2                	slli	s9,s9,0x10
   10a66:	010cdc93          	srli	s9,s9,0x10
   10a6a:	4d01                	li	s10,0
   10a6c:	b3f5                	j	10858 <_vfprintf_r+0x398>
   10a6e:	47e2                	lw	a5,24(sp)
   10a70:	010bf713          	andi	a4,s7,16
   10a74:	0007ac83          	lw	s9,0(a5)
   10a78:	0791                	addi	a5,a5,4
   10a7a:	cc3e                	sw	a5,24(sp)
   10a7c:	7c071463          	bnez	a4,11244 <_vfprintf_r+0xd84>
   10a80:	040bf713          	andi	a4,s7,64
   10a84:	7a070c63          	beqz	a4,1123c <_vfprintf_r+0xd7c>
   10a88:	0cc2                	slli	s9,s9,0x10
   10a8a:	410cdc93          	srai	s9,s9,0x10
   10a8e:	41fcdd13          	srai	s10,s9,0x1f
   10a92:	876a                	mv	a4,s10
   10a94:	d60752e3          	bgez	a4,107f8 <_vfprintf_r+0x338>
   10a98:	02d00793          	li	a5,45
   10a9c:	01903733          	snez	a4,s9
   10aa0:	41a00d33          	neg	s10,s10
   10aa4:	0cf103a3          	sb	a5,199(sp)
   10aa8:	57fd                	li	a5,-1
   10aaa:	40ed0d33          	sub	s10,s10,a4
   10aae:	41900cb3          	neg	s9,s9
   10ab2:	8dde                	mv	s11,s7
   10ab4:	4685                	li	a3,1
   10ab6:	daf91ae3          	bne	s2,a5,1086a <_vfprintf_r+0x3aa>
   10aba:	4785                	li	a5,1
   10abc:	0cf68763          	beq	a3,a5,10b8a <_vfprintf_r+0x6ca>
   10ac0:	4789                	li	a5,2
   10ac2:	2ef68563          	beq	a3,a5,10dac <_vfprintf_r+0x8ec>
   10ac6:	1b010c13          	addi	s8,sp,432
   10aca:	01dd1713          	slli	a4,s10,0x1d
   10ace:	007cf793          	andi	a5,s9,7
   10ad2:	003cdc93          	srli	s9,s9,0x3
   10ad6:	03078793          	addi	a5,a5,48
   10ada:	01976cb3          	or	s9,a4,s9
   10ade:	003d5d13          	srli	s10,s10,0x3
   10ae2:	fefc0fa3          	sb	a5,-1(s8)
   10ae6:	01ace733          	or	a4,s9,s10
   10aea:	86e2                	mv	a3,s8
   10aec:	1c7d                	addi	s8,s8,-1
   10aee:	ff71                	bnez	a4,10aca <_vfprintf_r+0x60a>
   10af0:	001df713          	andi	a4,s11,1
   10af4:	2e070263          	beqz	a4,10dd8 <_vfprintf_r+0x918>
   10af8:	03000713          	li	a4,48
   10afc:	2ce78e63          	beq	a5,a4,10dd8 <_vfprintf_r+0x918>
   10b00:	16f9                	addi	a3,a3,-2
   10b02:	1b1c                	addi	a5,sp,432
   10b04:	feec0fa3          	sb	a4,-1(s8)
   10b08:	40d78d33          	sub	s10,a5,a3
   10b0c:	8bee                	mv	s7,s11
   10b0e:	8c36                	mv	s8,a3
   10b10:	b321                	j	10818 <_vfprintf_r+0x358>
   10b12:	5542                	lw	a0,48(sp)
   10b14:	46f010ef          	jal	ra,12782 <__sinit>
   10b18:	4fb2                	lw	t6,12(sp)
   10b1a:	b419                	j	10520 <_vfprintf_r+0x60>
   10b1c:	47e2                	lw	a5,24(sp)
   10b1e:	0c0103a3          	sb	zero,199(sp)
   10b22:	4c85                	li	s9,1
   10b24:	4398                	lw	a4,0(a5)
   10b26:	0791                	addi	a5,a5,4
   10b28:	cc3e                	sw	a5,24(sp)
   10b2a:	14e10623          	sb	a4,332(sp)
   10b2e:	4d05                	li	s10,1
   10b30:	14c10c13          	addi	s8,sp,332
   10b34:	b619                	j	1063a <_vfprintf_r+0x17a>
   10b36:	47e2                	lw	a5,24(sp)
   10b38:	0c0103a3          	sb	zero,199(sp)
   10b3c:	0007ac03          	lw	s8,0(a5)
   10b40:	00478a93          	addi	s5,a5,4
   10b44:	7e0c0863          	beqz	s8,11334 <_vfprintf_r+0xe74>
   10b48:	577d                	li	a4,-1
   10b4a:	28e90de3          	beq	s2,a4,115e4 <_vfprintf_r+0x1124>
   10b4e:	864a                	mv	a2,s2
   10b50:	4581                	li	a1,0
   10b52:	8562                	mv	a0,s8
   10b54:	cc46                	sw	a7,24(sp)
   10b56:	43f040ef          	jal	ra,15794 <memchr>
   10b5a:	ca2a                	sw	a0,20(sp)
   10b5c:	48e2                	lw	a7,24(sp)
   10b5e:	e119                	bnez	a0,10b64 <_vfprintf_r+0x6a4>
   10b60:	2bc0106f          	j	11e1c <_vfprintf_r+0x195c>
   10b64:	47d2                	lw	a5,20(sp)
   10b66:	0c714703          	lbu	a4,199(sp)
   10b6a:	cc56                	sw	s5,24(sp)
   10b6c:	41878d33          	sub	s10,a5,s8
   10b70:	fffd4693          	not	a3,s10
   10b74:	86fd                	srai	a3,a3,0x1f
   10b76:	ca02                	sw	zero,20(sp)
   10b78:	d602                	sw	zero,44(sp)
   10b7a:	d402                	sw	zero,40(sp)
   10b7c:	d002                	sw	zero,32(sp)
   10b7e:	00dd7cb3          	and	s9,s10,a3
   10b82:	4901                	li	s2,0
   10b84:	ca0716e3          	bnez	a4,10830 <_vfprintf_r+0x370>
   10b88:	bc75                	j	10644 <_vfprintf_r+0x184>
   10b8a:	060d13e3          	bnez	s10,113f0 <_vfprintf_r+0xf30>
   10b8e:	47a5                	li	a5,9
   10b90:	0797e0e3          	bltu	a5,s9,113f0 <_vfprintf_r+0xf30>
   10b94:	030c8c93          	addi	s9,s9,48
   10b98:	1b9107a3          	sb	s9,431(sp)
   10b9c:	8bee                	mv	s7,s11
   10b9e:	4d05                	li	s10,1
   10ba0:	1af10c13          	addi	s8,sp,431
   10ba4:	b995                	j	10818 <_vfprintf_r+0x358>
   10ba6:	47e2                	lw	a5,24(sp)
   10ba8:	0007aa03          	lw	s4,0(a5)
   10bac:	0791                	addi	a5,a5,4
   10bae:	660a5263          	bgez	s4,11212 <_vfprintf_r+0xd52>
   10bb2:	41400a33          	neg	s4,s4
   10bb6:	cc3e                	sw	a5,24(sp)
   10bb8:	0004c883          	lbu	a7,0(s1)
   10bbc:	004beb93          	ori	s7,s7,4
   10bc0:	b42d                	j	105ea <_vfprintf_r+0x12a>
   10bc2:	02b00793          	li	a5,43
   10bc6:	0004c883          	lbu	a7,0(s1)
   10bca:	0cf103a3          	sb	a5,199(sp)
   10bce:	bc31                	j	105ea <_vfprintf_r+0x12a>
   10bd0:	0004c883          	lbu	a7,0(s1)
   10bd4:	080beb93          	ori	s7,s7,128
   10bd8:	bc09                	j	105ea <_vfprintf_r+0x12a>
   10bda:	0004c883          	lbu	a7,0(s1)
   10bde:	02a00793          	li	a5,42
   10be2:	00148713          	addi	a4,s1,1
   10be6:	00f89463          	bne	a7,a5,10bee <_vfprintf_r+0x72e>
   10bea:	4ca0106f          	j	120b4 <_vfprintf_r+0x1bf4>
   10bee:	fd088793          	addi	a5,a7,-48
   10bf2:	4625                	li	a2,9
   10bf4:	84ba                	mv	s1,a4
   10bf6:	4901                	li	s2,0
   10bf8:	46a5                	li	a3,9
   10bfa:	9ef669e3          	bltu	a2,a5,105ec <_vfprintf_r+0x12c>
   10bfe:	0004c883          	lbu	a7,0(s1)
   10c02:	00291713          	slli	a4,s2,0x2
   10c06:	993a                	add	s2,s2,a4
   10c08:	0906                	slli	s2,s2,0x1
   10c0a:	993e                	add	s2,s2,a5
   10c0c:	fd088793          	addi	a5,a7,-48
   10c10:	0485                	addi	s1,s1,1
   10c12:	fef6f6e3          	bgeu	a3,a5,10bfe <_vfprintf_r+0x73e>
   10c16:	bad9                	j	105ec <_vfprintf_r+0x12c>
   10c18:	0004c883          	lbu	a7,0(s1)
   10c1c:	001beb93          	ori	s7,s7,1
   10c20:	b2e9                	j	105ea <_vfprintf_r+0x12a>
   10c22:	0c714783          	lbu	a5,199(sp)
   10c26:	0004c883          	lbu	a7,0(s1)
   10c2a:	9c0790e3          	bnez	a5,105ea <_vfprintf_r+0x12a>
   10c2e:	02000793          	li	a5,32
   10c32:	0cf103a3          	sb	a5,199(sp)
   10c36:	ba55                	j	105ea <_vfprintf_r+0x12a>
   10c38:	0004c883          	lbu	a7,0(s1)
   10c3c:	008beb93          	ori	s7,s7,8
   10c40:	b26d                	j	105ea <_vfprintf_r+0x12a>
   10c42:	010bed93          	ori	s11,s7,16
   10c46:	020df793          	andi	a5,s11,32
   10c4a:	58078863          	beqz	a5,111da <_vfprintf_r+0xd1a>
   10c4e:	47e2                	lw	a5,24(sp)
   10c50:	4685                	li	a3,1
   10c52:	00778a93          	addi	s5,a5,7
   10c56:	ff8afa93          	andi	s5,s5,-8
   10c5a:	008a8793          	addi	a5,s5,8
   10c5e:	000aac83          	lw	s9,0(s5)
   10c62:	004aad03          	lw	s10,4(s5)
   10c66:	cc3e                	sw	a5,24(sp)
   10c68:	bedd                	j	1085e <_vfprintf_r+0x39e>
   10c6a:	4762                	lw	a4,24(sp)
   10c6c:	77e1                	lui	a5,0xffff8
   10c6e:	8307c793          	xori	a5,a5,-2000
   10c72:	0cf11423          	sh	a5,200(sp)
   10c76:	00470793          	addi	a5,a4,4
   10c7a:	cc3e                	sw	a5,24(sp)
   10c7c:	67f9                	lui	a5,0x1e
   10c7e:	d4878793          	addi	a5,a5,-696 # 1dd48 <__clzsi2+0x5c>
   10c82:	00072c83          	lw	s9,0(a4)
   10c86:	4d01                	li	s10,0
   10c88:	002bed93          	ori	s11,s7,2
   10c8c:	de3e                	sw	a5,60(sp)
   10c8e:	4689                	li	a3,2
   10c90:	07800893          	li	a7,120
   10c94:	b6e9                	j	1085e <_vfprintf_r+0x39e>
   10c96:	0004c883          	lbu	a7,0(s1)
   10c9a:	06c00793          	li	a5,108
   10c9e:	68f88463          	beq	a7,a5,11326 <_vfprintf_r+0xe66>
   10ca2:	010beb93          	ori	s7,s7,16
   10ca6:	b291                	j	105ea <_vfprintf_r+0x12a>
   10ca8:	0004c883          	lbu	a7,0(s1)
   10cac:	06800793          	li	a5,104
   10cb0:	64f88563          	beq	a7,a5,112fa <_vfprintf_r+0xe3a>
   10cb4:	040beb93          	ori	s7,s7,64
   10cb8:	ba0d                	j	105ea <_vfprintf_r+0x12a>
   10cba:	020bf713          	andi	a4,s7,32
   10cbe:	5a070263          	beqz	a4,11262 <_vfprintf_r+0xda2>
   10cc2:	47e2                	lw	a5,24(sp)
   10cc4:	46c2                	lw	a3,16(sp)
   10cc6:	439c                	lw	a5,0(a5)
   10cc8:	41f6d713          	srai	a4,a3,0x1f
   10ccc:	c394                	sw	a3,0(a5)
   10cce:	c3d8                	sw	a4,4(a5)
   10cd0:	47e2                	lw	a5,24(sp)
   10cd2:	8c26                	mv	s8,s1
   10cd4:	0791                	addi	a5,a5,4
   10cd6:	cc3e                	sw	a5,24(sp)
   10cd8:	bc05                	j	10708 <_vfprintf_r+0x248>
   10cda:	06500713          	li	a4,101
   10cde:	cb1755e3          	bge	a4,a7,10988 <_vfprintf_r+0x4c8>
   10ce2:	574e                	lw	a4,240(sp)
   10ce4:	110c                	addi	a1,sp,160
   10ce6:	1908                	addi	a0,sp,176
   10ce8:	d93a                	sw	a4,176(sp)
   10cea:	575e                	lw	a4,244(sp)
   10cec:	d102                	sw	zero,160(sp)
   10cee:	d302                	sw	zero,164(sp)
   10cf0:	db3a                	sw	a4,180(sp)
   10cf2:	576e                	lw	a4,248(sp)
   10cf4:	d502                	sw	zero,168(sp)
   10cf6:	d702                	sw	zero,172(sp)
   10cf8:	dd3a                	sw	a4,184(sp)
   10cfa:	577e                	lw	a4,252(sp)
   10cfc:	df3a                	sw	a4,188(sp)
   10cfe:	6ba0a0ef          	jal	ra,1b3b8 <__eqtf2>
   10d02:	32051f63          	bnez	a0,11040 <_vfprintf_r+0xb80>
   10d06:	573e                	lw	a4,236(sp)
   10d08:	562e                	lw	a2,232(sp)
   10d0a:	65f9                	lui	a1,0x1e
   10d0c:	d7858593          	addi	a1,a1,-648 # 1dd78 <__clzsi2+0x8c>
   10d10:	c00c                	sw	a1,0(s0)
   10d12:	0705                	addi	a4,a4,1
   10d14:	4585                	li	a1,1
   10d16:	0605                	addi	a2,a2,1
   10d18:	c04c                	sw	a1,4(s0)
   10d1a:	d7ba                	sw	a4,236(sp)
   10d1c:	d5b2                	sw	a2,232(sp)
   10d1e:	459d                	li	a1,7
   10d20:	0421                	addi	s0,s0,8
   10d22:	7ec5c463          	blt	a1,a2,1150a <_vfprintf_r+0x104a>
   10d26:	463e                	lw	a2,204(sp)
   10d28:	5792                	lw	a5,36(sp)
   10d2a:	4cf65f63          	bge	a2,a5,11208 <_vfprintf_r+0xd48>
   10d2e:	57d2                	lw	a5,52(sp)
   10d30:	562e                	lw	a2,232(sp)
   10d32:	56e2                	lw	a3,56(sp)
   10d34:	973e                	add	a4,a4,a5
   10d36:	0605                	addi	a2,a2,1
   10d38:	c014                	sw	a3,0(s0)
   10d3a:	c05c                	sw	a5,4(s0)
   10d3c:	d7ba                	sw	a4,236(sp)
   10d3e:	d5b2                	sw	a2,232(sp)
   10d40:	459d                	li	a1,7
   10d42:	0421                	addi	s0,s0,8
   10d44:	5cc5c763          	blt	a1,a2,11312 <_vfprintf_r+0xe52>
   10d48:	5792                	lw	a5,36(sp)
   10d4a:	fff78913          	addi	s2,a5,-1
   10d4e:	992054e3          	blez	s2,106d6 <_vfprintf_r+0x216>
   10d52:	6879                	lui	a6,0x1e
   10d54:	45c1                	li	a1,16
   10d56:	562e                	lw	a2,232(sp)
   10d58:	f8080a93          	addi	s5,a6,-128 # 1df80 <zeroes.0>
   10d5c:	7d25d263          	bge	a1,s2,11520 <_vfprintf_r+0x1060>
   10d60:	4c22                	lw	s8,8(sp)
   10d62:	4d41                	li	s10,16
   10d64:	4d9d                	li	s11,7
   10d66:	a021                	j	10d6e <_vfprintf_r+0x8ae>
   10d68:	1941                	addi	s2,s2,-16
   10d6a:	7b2d5b63          	bge	s10,s2,11520 <_vfprintf_r+0x1060>
   10d6e:	0741                	addi	a4,a4,16
   10d70:	0605                	addi	a2,a2,1
   10d72:	01542023          	sw	s5,0(s0)
   10d76:	01a42223          	sw	s10,4(s0)
   10d7a:	d7ba                	sw	a4,236(sp)
   10d7c:	d5b2                	sw	a2,232(sp)
   10d7e:	0421                	addi	s0,s0,8
   10d80:	fecdd4e3          	bge	s11,a2,10d68 <_vfprintf_r+0x8a8>
   10d84:	11d0                	addi	a2,sp,228
   10d86:	85e2                	mv	a1,s8
   10d88:	854e                	mv	a0,s3
   10d8a:	529070ef          	jal	ra,18ab2 <__sprint_r>
   10d8e:	16051d63          	bnez	a0,10f08 <_vfprintf_r+0xa48>
   10d92:	573e                	lw	a4,236(sp)
   10d94:	562e                	lw	a2,232(sp)
   10d96:	845a                	mv	s0,s6
   10d98:	bfc1                	j	10d68 <_vfprintf_r+0x8a8>
   10d9a:	4705                	li	a4,1
   10d9c:	00e69463          	bne	a3,a4,10da4 <_vfprintf_r+0x8e4>
   10da0:	0c20106f          	j	11e62 <_vfprintf_r+0x19a2>
   10da4:	4709                	li	a4,2
   10da6:	8dde                	mv	s11,s7
   10da8:	d0e69fe3          	bne	a3,a4,10ac6 <_vfprintf_r+0x606>
   10dac:	56f2                	lw	a3,60(sp)
   10dae:	1b010c13          	addi	s8,sp,432
   10db2:	00fcf793          	andi	a5,s9,15
   10db6:	97b6                	add	a5,a5,a3
   10db8:	0007c703          	lbu	a4,0(a5)
   10dbc:	004cdc93          	srli	s9,s9,0x4
   10dc0:	01cd1793          	slli	a5,s10,0x1c
   10dc4:	0197ecb3          	or	s9,a5,s9
   10dc8:	004d5d13          	srli	s10,s10,0x4
   10dcc:	feec0fa3          	sb	a4,-1(s8)
   10dd0:	01ace7b3          	or	a5,s9,s10
   10dd4:	1c7d                	addi	s8,s8,-1
   10dd6:	fff1                	bnez	a5,10db2 <_vfprintf_r+0x8f2>
   10dd8:	1b1c                	addi	a5,sp,432
   10dda:	41878d33          	sub	s10,a5,s8
   10dde:	8bee                	mv	s7,s11
   10de0:	bc25                	j	10818 <_vfprintf_r+0x358>
   10de2:	419a0db3          	sub	s11,s4,s9
   10de6:	8db052e3          	blez	s11,106aa <_vfprintf_r+0x1ea>
   10dea:	6879                	lui	a6,0x1e
   10dec:	4541                	li	a0,16
   10dee:	55be                	lw	a1,236(sp)
   10df0:	562e                	lw	a2,232(sp)
   10df2:	f8080a93          	addi	s5,a6,-128 # 1df80 <zeroes.0>
   10df6:	05b55863          	bge	a0,s11,10e46 <_vfprintf_r+0x986>
   10dfa:	87a2                	mv	a5,s0
   10dfc:	4ec1                	li	t4,16
   10dfe:	8456                	mv	s0,s5
   10e00:	4f1d                	li	t5,7
   10e02:	8aca                	mv	s5,s2
   10e04:	8946                	mv	s2,a7
   10e06:	a021                	j	10e0e <_vfprintf_r+0x94e>
   10e08:	1dc1                	addi	s11,s11,-16
   10e0a:	03beda63          	bge	t4,s11,10e3e <_vfprintf_r+0x97e>
   10e0e:	05c1                	addi	a1,a1,16
   10e10:	0605                	addi	a2,a2,1
   10e12:	c380                	sw	s0,0(a5)
   10e14:	01d7a223          	sw	t4,4(a5)
   10e18:	d7ae                	sw	a1,236(sp)
   10e1a:	d5b2                	sw	a2,232(sp)
   10e1c:	07a1                	addi	a5,a5,8
   10e1e:	fecf55e3          	bge	t5,a2,10e08 <_vfprintf_r+0x948>
   10e22:	45a2                	lw	a1,8(sp)
   10e24:	11d0                	addi	a2,sp,228
   10e26:	854e                	mv	a0,s3
   10e28:	48b070ef          	jal	ra,18ab2 <__sprint_r>
   10e2c:	ed71                	bnez	a0,10f08 <_vfprintf_r+0xa48>
   10e2e:	4ec1                	li	t4,16
   10e30:	1dc1                	addi	s11,s11,-16
   10e32:	55be                	lw	a1,236(sp)
   10e34:	562e                	lw	a2,232(sp)
   10e36:	87da                	mv	a5,s6
   10e38:	4f1d                	li	t5,7
   10e3a:	fdbecae3          	blt	t4,s11,10e0e <_vfprintf_r+0x94e>
   10e3e:	88ca                	mv	a7,s2
   10e40:	8956                	mv	s2,s5
   10e42:	8aa2                	mv	s5,s0
   10e44:	843e                	mv	s0,a5
   10e46:	95ee                	add	a1,a1,s11
   10e48:	0605                	addi	a2,a2,1
   10e4a:	01542023          	sw	s5,0(s0)
   10e4e:	01b42223          	sw	s11,4(s0)
   10e52:	d7ae                	sw	a1,236(sp)
   10e54:	d5b2                	sw	a2,232(sp)
   10e56:	471d                	li	a4,7
   10e58:	0421                	addi	s0,s0,8
   10e5a:	84c758e3          	bge	a4,a2,106aa <_vfprintf_r+0x1ea>
   10e5e:	45a2                	lw	a1,8(sp)
   10e60:	11d0                	addi	a2,sp,228
   10e62:	854e                	mv	a0,s3
   10e64:	c8c6                	sw	a7,80(sp)
   10e66:	44d070ef          	jal	ra,18ab2 <__sprint_r>
   10e6a:	ed59                	bnez	a0,10f08 <_vfprintf_r+0xa48>
   10e6c:	48c6                	lw	a7,80(sp)
   10e6e:	845a                	mv	s0,s6
   10e70:	83bff06f          	j	106aa <_vfprintf_r+0x1ea>
   10e74:	6879                	lui	a6,0x1e
   10e76:	4741                	li	a4,16
   10e78:	55be                	lw	a1,236(sp)
   10e7a:	562e                	lw	a2,232(sp)
   10e7c:	f8080a93          	addi	s5,a6,-128 # 1df80 <zeroes.0>
   10e80:	05275663          	bge	a4,s2,10ecc <_vfprintf_r+0xa0c>
   10e84:	87a2                	mv	a5,s0
   10e86:	4ab2                	lw	s5,12(sp)
   10e88:	844a                	mv	s0,s2
   10e8a:	4741                	li	a4,16
   10e8c:	4d9d                	li	s11,7
   10e8e:	8946                	mv	s2,a7
   10e90:	a021                	j	10e98 <_vfprintf_r+0x9d8>
   10e92:	1441                	addi	s0,s0,-16
   10e94:	02875963          	bge	a4,s0,10ec6 <_vfprintf_r+0xa06>
   10e98:	46b2                	lw	a3,12(sp)
   10e9a:	05c1                	addi	a1,a1,16
   10e9c:	0605                	addi	a2,a2,1
   10e9e:	c394                	sw	a3,0(a5)
   10ea0:	c3d8                	sw	a4,4(a5)
   10ea2:	d7ae                	sw	a1,236(sp)
   10ea4:	d5b2                	sw	a2,232(sp)
   10ea6:	07a1                	addi	a5,a5,8
   10ea8:	fecdd5e3          	bge	s11,a2,10e92 <_vfprintf_r+0x9d2>
   10eac:	45a2                	lw	a1,8(sp)
   10eae:	11d0                	addi	a2,sp,228
   10eb0:	854e                	mv	a0,s3
   10eb2:	401070ef          	jal	ra,18ab2 <__sprint_r>
   10eb6:	e929                	bnez	a0,10f08 <_vfprintf_r+0xa48>
   10eb8:	4741                	li	a4,16
   10eba:	1441                	addi	s0,s0,-16
   10ebc:	55be                	lw	a1,236(sp)
   10ebe:	562e                	lw	a2,232(sp)
   10ec0:	87da                	mv	a5,s6
   10ec2:	fc874be3          	blt	a4,s0,10e98 <_vfprintf_r+0x9d8>
   10ec6:	88ca                	mv	a7,s2
   10ec8:	8922                	mv	s2,s0
   10eca:	843e                	mv	s0,a5
   10ecc:	95ca                	add	a1,a1,s2
   10ece:	0605                	addi	a2,a2,1
   10ed0:	01542023          	sw	s5,0(s0)
   10ed4:	01242223          	sw	s2,4(s0)
   10ed8:	d7ae                	sw	a1,236(sp)
   10eda:	d5b2                	sw	a2,232(sp)
   10edc:	471d                	li	a4,7
   10ede:	0421                	addi	s0,s0,8
   10ee0:	fcc75963          	bge	a4,a2,106b2 <_vfprintf_r+0x1f2>
   10ee4:	45a2                	lw	a1,8(sp)
   10ee6:	11d0                	addi	a2,sp,228
   10ee8:	854e                	mv	a0,s3
   10eea:	c8c6                	sw	a7,80(sp)
   10eec:	3c7070ef          	jal	ra,18ab2 <__sprint_r>
   10ef0:	ed01                	bnez	a0,10f08 <_vfprintf_r+0xa48>
   10ef2:	48c6                	lw	a7,80(sp)
   10ef4:	845a                	mv	s0,s6
   10ef6:	fbcff06f          	j	106b2 <_vfprintf_r+0x1f2>
   10efa:	45a2                	lw	a1,8(sp)
   10efc:	11d0                	addi	a2,sp,228
   10efe:	854e                	mv	a0,s3
   10f00:	3b3070ef          	jal	ra,18ab2 <__sprint_r>
   10f04:	fe050963          	beqz	a0,106f6 <_vfprintf_r+0x236>
   10f08:	45d2                	lw	a1,20(sp)
   10f0a:	800587e3          	beqz	a1,10718 <_vfprintf_r+0x258>
   10f0e:	5542                	lw	a0,48(sp)
   10f10:	19b010ef          	jal	ra,128aa <_free_r>
   10f14:	805ff06f          	j	10718 <_vfprintf_r+0x258>
   10f18:	8dde                	mv	s11,s7
   10f1a:	b645                	j	10aba <_vfprintf_r+0x5fa>
   10f1c:	6879                	lui	a6,0x1e
   10f1e:	4541                	li	a0,16
   10f20:	55be                	lw	a1,236(sp)
   10f22:	562e                	lw	a2,232(sp)
   10f24:	f9080a93          	addi	s5,a6,-112 # 1df90 <blanks.1>
   10f28:	04e55e63          	bge	a0,a4,10f84 <_vfprintf_r+0xac4>
   10f2c:	caa6                	sw	s1,84(sp)
   10f2e:	87a2                	mv	a5,s0
   10f30:	84d6                	mv	s1,s5
   10f32:	4ec1                	li	t4,16
   10f34:	8aca                	mv	s5,s2
   10f36:	439d                	li	t2,7
   10f38:	c896                	sw	t0,80(sp)
   10f3a:	843a                	mv	s0,a4
   10f3c:	8946                	mv	s2,a7
   10f3e:	a021                	j	10f46 <_vfprintf_r+0xa86>
   10f40:	1441                	addi	s0,s0,-16
   10f42:	028eda63          	bge	t4,s0,10f76 <_vfprintf_r+0xab6>
   10f46:	05c1                	addi	a1,a1,16
   10f48:	0605                	addi	a2,a2,1
   10f4a:	c384                	sw	s1,0(a5)
   10f4c:	01d7a223          	sw	t4,4(a5)
   10f50:	d7ae                	sw	a1,236(sp)
   10f52:	d5b2                	sw	a2,232(sp)
   10f54:	07a1                	addi	a5,a5,8
   10f56:	fec3d5e3          	bge	t2,a2,10f40 <_vfprintf_r+0xa80>
   10f5a:	45a2                	lw	a1,8(sp)
   10f5c:	11d0                	addi	a2,sp,228
   10f5e:	854e                	mv	a0,s3
   10f60:	353070ef          	jal	ra,18ab2 <__sprint_r>
   10f64:	f155                	bnez	a0,10f08 <_vfprintf_r+0xa48>
   10f66:	4ec1                	li	t4,16
   10f68:	1441                	addi	s0,s0,-16
   10f6a:	55be                	lw	a1,236(sp)
   10f6c:	562e                	lw	a2,232(sp)
   10f6e:	87da                	mv	a5,s6
   10f70:	439d                	li	t2,7
   10f72:	fc8ecae3          	blt	t4,s0,10f46 <_vfprintf_r+0xa86>
   10f76:	88ca                	mv	a7,s2
   10f78:	42c6                	lw	t0,80(sp)
   10f7a:	8956                	mv	s2,s5
   10f7c:	8aa6                	mv	s5,s1
   10f7e:	44d6                	lw	s1,84(sp)
   10f80:	8722                	mv	a4,s0
   10f82:	843e                	mv	s0,a5
   10f84:	95ba                	add	a1,a1,a4
   10f86:	0605                	addi	a2,a2,1
   10f88:	c058                	sw	a4,4(s0)
   10f8a:	01542023          	sw	s5,0(s0)
   10f8e:	d7ae                	sw	a1,236(sp)
   10f90:	d5b2                	sw	a2,232(sp)
   10f92:	471d                	li	a4,7
   10f94:	0421                	addi	s0,s0,8
   10f96:	ecc75463          	bge	a4,a2,1065e <_vfprintf_r+0x19e>
   10f9a:	45a2                	lw	a1,8(sp)
   10f9c:	11d0                	addi	a2,sp,228
   10f9e:	854e                	mv	a0,s3
   10fa0:	cac6                	sw	a7,84(sp)
   10fa2:	c896                	sw	t0,80(sp)
   10fa4:	30f070ef          	jal	ra,18ab2 <__sprint_r>
   10fa8:	f125                	bnez	a0,10f08 <_vfprintf_r+0xa48>
   10faa:	48d6                	lw	a7,84(sp)
   10fac:	42c6                	lw	t0,80(sp)
   10fae:	845a                	mv	s0,s6
   10fb0:	eaeff06f          	j	1065e <_vfprintf_r+0x19e>
   10fb4:	45a2                	lw	a1,8(sp)
   10fb6:	11d0                	addi	a2,sp,228
   10fb8:	854e                	mv	a0,s3
   10fba:	c8c6                	sw	a7,80(sp)
   10fbc:	2f7070ef          	jal	ra,18ab2 <__sprint_r>
   10fc0:	f521                	bnez	a0,10f08 <_vfprintf_r+0xa48>
   10fc2:	48c6                	lw	a7,80(sp)
   10fc4:	845a                	mv	s0,s6
   10fc6:	edcff06f          	j	106a2 <_vfprintf_r+0x1e2>
   10fca:	6879                	lui	a6,0x1e
   10fcc:	4641                	li	a2,16
   10fce:	57ae                	lw	a5,232(sp)
   10fd0:	f9080a93          	addi	s5,a6,-112 # 1df90 <blanks.1>
   10fd4:	05265163          	bge	a2,s2,11016 <_vfprintf_r+0xb56>
   10fd8:	4ba2                	lw	s7,8(sp)
   10fda:	4d41                	li	s10,16
   10fdc:	4d9d                	li	s11,7
   10fde:	a021                	j	10fe6 <_vfprintf_r+0xb26>
   10fe0:	1941                	addi	s2,s2,-16
   10fe2:	032d5a63          	bge	s10,s2,11016 <_vfprintf_r+0xb56>
   10fe6:	0741                	addi	a4,a4,16
   10fe8:	0785                	addi	a5,a5,1
   10fea:	01542023          	sw	s5,0(s0)
   10fee:	01a42223          	sw	s10,4(s0)
   10ff2:	d7ba                	sw	a4,236(sp)
   10ff4:	d5be                	sw	a5,232(sp)
   10ff6:	0421                	addi	s0,s0,8
   10ff8:	fefdd4e3          	bge	s11,a5,10fe0 <_vfprintf_r+0xb20>
   10ffc:	11d0                	addi	a2,sp,228
   10ffe:	85de                	mv	a1,s7
   11000:	854e                	mv	a0,s3
   11002:	2b1070ef          	jal	ra,18ab2 <__sprint_r>
   11006:	f00511e3          	bnez	a0,10f08 <_vfprintf_r+0xa48>
   1100a:	1941                	addi	s2,s2,-16
   1100c:	573e                	lw	a4,236(sp)
   1100e:	57ae                	lw	a5,232(sp)
   11010:	845a                	mv	s0,s6
   11012:	fd2d4ae3          	blt	s10,s2,10fe6 <_vfprintf_r+0xb26>
   11016:	974a                	add	a4,a4,s2
   11018:	0785                	addi	a5,a5,1
   1101a:	01542023          	sw	s5,0(s0)
   1101e:	01242223          	sw	s2,4(s0)
   11022:	d7ba                	sw	a4,236(sp)
   11024:	d5be                	sw	a5,232(sp)
   11026:	461d                	li	a2,7
   11028:	eaf65e63          	bge	a2,a5,106e4 <_vfprintf_r+0x224>
   1102c:	45a2                	lw	a1,8(sp)
   1102e:	11d0                	addi	a2,sp,228
   11030:	854e                	mv	a0,s3
   11032:	281070ef          	jal	ra,18ab2 <__sprint_r>
   11036:	ec0519e3          	bnez	a0,10f08 <_vfprintf_r+0xa48>
   1103a:	573e                	lw	a4,236(sp)
   1103c:	ea8ff06f          	j	106e4 <_vfprintf_r+0x224>
   11040:	453e                	lw	a0,204(sp)
   11042:	46a05f63          	blez	a0,114c0 <_vfprintf_r+0x1000>
   11046:	5792                	lw	a5,36(sp)
   11048:	00fc0733          	add	a4,s8,a5
   1104c:	c8ba                	sw	a4,80(sp)
   1104e:	5702                	lw	a4,32(sp)
   11050:	893a                	mv	s2,a4
   11052:	24e7c763          	blt	a5,a4,112a0 <_vfprintf_r+0xde0>
   11056:	573e                	lw	a4,236(sp)
   11058:	01205f63          	blez	s2,11076 <_vfprintf_r+0xbb6>
   1105c:	562e                	lw	a2,232(sp)
   1105e:	974a                	add	a4,a4,s2
   11060:	01842023          	sw	s8,0(s0)
   11064:	0605                	addi	a2,a2,1
   11066:	01242223          	sw	s2,4(s0)
   1106a:	d7ba                	sw	a4,236(sp)
   1106c:	d5b2                	sw	a2,232(sp)
   1106e:	459d                	li	a1,7
   11070:	0421                	addi	s0,s0,8
   11072:	14c5c5e3          	blt	a1,a2,119bc <_vfprintf_r+0x14fc>
   11076:	fff94613          	not	a2,s2
   1107a:	5782                	lw	a5,32(sp)
   1107c:	867d                	srai	a2,a2,0x1f
   1107e:	00c97833          	and	a6,s2,a2
   11082:	41078933          	sub	s2,a5,a6
   11086:	2d204263          	bgtz	s2,1134a <_vfprintf_r+0xe8a>
   1108a:	5782                	lw	a5,32(sp)
   1108c:	400bf613          	andi	a2,s7,1024
   11090:	9c3e                	add	s8,s8,a5
   11092:	5c061363          	bnez	a2,11658 <_vfprintf_r+0x1198>
   11096:	463e                	lw	a2,204(sp)
   11098:	5792                	lw	a5,36(sp)
   1109a:	00f64663          	blt	a2,a5,110a6 <_vfprintf_r+0xbe6>
   1109e:	001bf593          	andi	a1,s7,1
   110a2:	12058ae3          	beqz	a1,119d6 <_vfprintf_r+0x1516>
   110a6:	57d2                	lw	a5,52(sp)
   110a8:	55ae                	lw	a1,232(sp)
   110aa:	56e2                	lw	a3,56(sp)
   110ac:	973e                	add	a4,a4,a5
   110ae:	0585                	addi	a1,a1,1
   110b0:	c014                	sw	a3,0(s0)
   110b2:	c05c                	sw	a5,4(s0)
   110b4:	d7ba                	sw	a4,236(sp)
   110b6:	d5ae                	sw	a1,232(sp)
   110b8:	451d                	li	a0,7
   110ba:	0421                	addi	s0,s0,8
   110bc:	54b544e3          	blt	a0,a1,11e04 <_vfprintf_r+0x1944>
   110c0:	5792                	lw	a5,36(sp)
   110c2:	40c78633          	sub	a2,a5,a2
   110c6:	47c6                	lw	a5,80(sp)
   110c8:	41878933          	sub	s2,a5,s8
   110cc:	01265363          	bge	a2,s2,110d2 <_vfprintf_r+0xc12>
   110d0:	8932                	mv	s2,a2
   110d2:	01205f63          	blez	s2,110f0 <_vfprintf_r+0xc30>
   110d6:	55ae                	lw	a1,232(sp)
   110d8:	974a                	add	a4,a4,s2
   110da:	01842023          	sw	s8,0(s0)
   110de:	0585                	addi	a1,a1,1
   110e0:	01242223          	sw	s2,4(s0)
   110e4:	d7ba                	sw	a4,236(sp)
   110e6:	d5ae                	sw	a1,232(sp)
   110e8:	451d                	li	a0,7
   110ea:	0421                	addi	s0,s0,8
   110ec:	54b54be3          	blt	a0,a1,11e42 <_vfprintf_r+0x1982>
   110f0:	fff94593          	not	a1,s2
   110f4:	85fd                	srai	a1,a1,0x1f
   110f6:	00b97d33          	and	s10,s2,a1
   110fa:	41a60933          	sub	s2,a2,s10
   110fe:	dd205c63          	blez	s2,106d6 <_vfprintf_r+0x216>
   11102:	6879                	lui	a6,0x1e
   11104:	45c1                	li	a1,16
   11106:	562e                	lw	a2,232(sp)
   11108:	f8080a93          	addi	s5,a6,-128 # 1df80 <zeroes.0>
   1110c:	4125da63          	bge	a1,s2,11520 <_vfprintf_r+0x1060>
   11110:	4c22                	lw	s8,8(sp)
   11112:	4d41                	li	s10,16
   11114:	4d9d                	li	s11,7
   11116:	a021                	j	1111e <_vfprintf_r+0xc5e>
   11118:	1941                	addi	s2,s2,-16
   1111a:	412d5363          	bge	s10,s2,11520 <_vfprintf_r+0x1060>
   1111e:	0741                	addi	a4,a4,16
   11120:	0605                	addi	a2,a2,1
   11122:	01542023          	sw	s5,0(s0)
   11126:	01a42223          	sw	s10,4(s0)
   1112a:	d7ba                	sw	a4,236(sp)
   1112c:	d5b2                	sw	a2,232(sp)
   1112e:	0421                	addi	s0,s0,8
   11130:	fecdd4e3          	bge	s11,a2,11118 <_vfprintf_r+0xc58>
   11134:	11d0                	addi	a2,sp,228
   11136:	85e2                	mv	a1,s8
   11138:	854e                	mv	a0,s3
   1113a:	179070ef          	jal	ra,18ab2 <__sprint_r>
   1113e:	dc0515e3          	bnez	a0,10f08 <_vfprintf_r+0xa48>
   11142:	573e                	lw	a4,236(sp)
   11144:	562e                	lw	a2,232(sp)
   11146:	845a                	mv	s0,s6
   11148:	bfc1                	j	11118 <_vfprintf_r+0xc58>
   1114a:	001bf713          	andi	a4,s7,1
   1114e:	840713e3          	bnez	a4,10994 <_vfprintf_r+0x4d4>
   11152:	573e                	lw	a4,236(sp)
   11154:	562e                	lw	a2,232(sp)
   11156:	01842023          	sw	s8,0(s0)
   1115a:	00170d93          	addi	s11,a4,1
   1115e:	00160913          	addi	s2,a2,1
   11162:	c04c                	sw	a1,4(s0)
   11164:	d7ee                	sw	s11,236(sp)
   11166:	d5ca                	sw	s2,232(sp)
   11168:	471d                	li	a4,7
   1116a:	8b2755e3          	bge	a4,s2,10a14 <_vfprintf_r+0x554>
   1116e:	45a2                	lw	a1,8(sp)
   11170:	11d0                	addi	a2,sp,228
   11172:	854e                	mv	a0,s3
   11174:	13f070ef          	jal	ra,18ab2 <__sprint_r>
   11178:	d80518e3          	bnez	a0,10f08 <_vfprintf_r+0xa48>
   1117c:	5dbe                	lw	s11,236(sp)
   1117e:	592e                	lw	s2,232(sp)
   11180:	8d5a                	mv	s10,s6
   11182:	b849                	j	10a14 <_vfprintf_r+0x554>
   11184:	5792                	lw	a5,36(sp)
   11186:	4705                	li	a4,1
   11188:	88f756e3          	bge	a4,a5,10a14 <_vfprintf_r+0x554>
   1118c:	6879                	lui	a6,0x1e
   1118e:	4745                	li	a4,17
   11190:	f8080a93          	addi	s5,a6,-128 # 1df80 <zeroes.0>
   11194:	40f75663          	bge	a4,a5,115a0 <_vfprintf_r+0x10e0>
   11198:	87d6                	mv	a5,s5
   1119a:	4741                	li	a4,16
   1119c:	8ad2                	mv	s5,s4
   1119e:	4c1d                	li	s8,7
   111a0:	8a26                	mv	s4,s1
   111a2:	84be                	mv	s1,a5
   111a4:	a021                	j	111ac <_vfprintf_r+0xcec>
   111a6:	1441                	addi	s0,s0,-16
   111a8:	3e875863          	bge	a4,s0,11598 <_vfprintf_r+0x10d8>
   111ac:	0dc1                	addi	s11,s11,16
   111ae:	0905                	addi	s2,s2,1
   111b0:	009d2023          	sw	s1,0(s10)
   111b4:	00ed2223          	sw	a4,4(s10)
   111b8:	d7ee                	sw	s11,236(sp)
   111ba:	d5ca                	sw	s2,232(sp)
   111bc:	0d21                	addi	s10,s10,8
   111be:	ff2c54e3          	bge	s8,s2,111a6 <_vfprintf_r+0xce6>
   111c2:	45a2                	lw	a1,8(sp)
   111c4:	11d0                	addi	a2,sp,228
   111c6:	854e                	mv	a0,s3
   111c8:	0eb070ef          	jal	ra,18ab2 <__sprint_r>
   111cc:	d2051ee3          	bnez	a0,10f08 <_vfprintf_r+0xa48>
   111d0:	5dbe                	lw	s11,236(sp)
   111d2:	592e                	lw	s2,232(sp)
   111d4:	8d5a                	mv	s10,s6
   111d6:	4741                	li	a4,16
   111d8:	b7f9                	j	111a6 <_vfprintf_r+0xce6>
   111da:	4762                	lw	a4,24(sp)
   111dc:	010df793          	andi	a5,s11,16
   111e0:	00072c83          	lw	s9,0(a4)
   111e4:	0711                	addi	a4,a4,4
   111e6:	cc3a                	sw	a4,24(sp)
   111e8:	ef9d                	bnez	a5,11226 <_vfprintf_r+0xd66>
   111ea:	040df793          	andi	a5,s11,64
   111ee:	c79d                	beqz	a5,1121c <_vfprintf_r+0xd5c>
   111f0:	0cc2                	slli	s9,s9,0x10
   111f2:	010cdc93          	srli	s9,s9,0x10
   111f6:	4d01                	li	s10,0
   111f8:	4685                	li	a3,1
   111fa:	e64ff06f          	j	1085e <_vfprintf_r+0x39e>
   111fe:	4d01                	li	s10,0
   11200:	1b010c13          	addi	s8,sp,432
   11204:	e14ff06f          	j	10818 <_vfprintf_r+0x358>
   11208:	001bf613          	andi	a2,s7,1
   1120c:	cc060563          	beqz	a2,106d6 <_vfprintf_r+0x216>
   11210:	be39                	j	10d2e <_vfprintf_r+0x86e>
   11212:	0004c883          	lbu	a7,0(s1)
   11216:	cc3e                	sw	a5,24(sp)
   11218:	bd2ff06f          	j	105ea <_vfprintf_r+0x12a>
   1121c:	200df793          	andi	a5,s11,512
   11220:	c399                	beqz	a5,11226 <_vfprintf_r+0xd66>
   11222:	0ffcfc93          	zext.b	s9,s9
   11226:	4d01                	li	s10,0
   11228:	4685                	li	a3,1
   1122a:	e34ff06f          	j	1085e <_vfprintf_r+0x39e>
   1122e:	200bf713          	andi	a4,s7,512
   11232:	7c071f63          	bnez	a4,11a10 <_vfprintf_r+0x1550>
   11236:	4d01                	li	s10,0
   11238:	e20ff06f          	j	10858 <_vfprintf_r+0x398>
   1123c:	200bf713          	andi	a4,s7,512
   11240:	7c071063          	bnez	a4,11a00 <_vfprintf_r+0x1540>
   11244:	41fcdd13          	srai	s10,s9,0x1f
   11248:	876a                	mv	a4,s10
   1124a:	daaff06f          	j	107f4 <_vfprintf_r+0x334>
   1124e:	47e2                	lw	a5,24(sp)
   11250:	4398                	lw	a4,0(a5)
   11252:	0791                	addi	a5,a5,4
   11254:	cc3e                	sw	a5,24(sp)
   11256:	430c                	lw	a1,0(a4)
   11258:	4350                	lw	a2,4(a4)
   1125a:	4714                	lw	a3,8(a4)
   1125c:	4758                	lw	a4,12(a4)
   1125e:	e88ff06f          	j	108e6 <_vfprintf_r+0x426>
   11262:	010bf713          	andi	a4,s7,16
   11266:	32071363          	bnez	a4,1158c <_vfprintf_r+0x10cc>
   1126a:	040bf713          	andi	a4,s7,64
   1126e:	76071e63          	bnez	a4,119ea <_vfprintf_r+0x152a>
   11272:	200bf793          	andi	a5,s7,512
   11276:	30078b63          	beqz	a5,1158c <_vfprintf_r+0x10cc>
   1127a:	47e2                	lw	a5,24(sp)
   1127c:	4742                	lw	a4,16(sp)
   1127e:	439c                	lw	a5,0(a5)
   11280:	00e78023          	sb	a4,0(a5)
   11284:	b4b1                	j	10cd0 <_vfprintf_r+0x810>
   11286:	4786                	lw	a5,64(sp)
   11288:	0004c883          	lbu	a7,0(s1)
   1128c:	b4078f63          	beqz	a5,105ea <_vfprintf_r+0x12a>
   11290:	0007c783          	lbu	a5,0(a5)
   11294:	b4078b63          	beqz	a5,105ea <_vfprintf_r+0x12a>
   11298:	400beb93          	ori	s7,s7,1024
   1129c:	b4eff06f          	j	105ea <_vfprintf_r+0x12a>
   112a0:	893e                	mv	s2,a5
   112a2:	573e                	lw	a4,236(sp)
   112a4:	db204ce3          	bgtz	s2,1105c <_vfprintf_r+0xb9c>
   112a8:	b3f9                	j	11076 <_vfprintf_r+0xbb6>
   112aa:	8dde                	mv	s11,s7
   112ac:	ba69                	j	10c46 <_vfprintf_r+0x786>
   112ae:	6779                	lui	a4,0x1e
   112b0:	d5c70793          	addi	a5,a4,-676 # 1dd5c <__clzsi2+0x70>
   112b4:	de3e                	sw	a5,60(sp)
   112b6:	020bf713          	andi	a4,s7,32
   112ba:	cf69                	beqz	a4,11394 <_vfprintf_r+0xed4>
   112bc:	47e2                	lw	a5,24(sp)
   112be:	00778a93          	addi	s5,a5,7
   112c2:	ff8afa93          	andi	s5,s5,-8
   112c6:	000aac83          	lw	s9,0(s5)
   112ca:	004aad03          	lw	s10,4(s5)
   112ce:	008a8793          	addi	a5,s5,8
   112d2:	cc3e                	sw	a5,24(sp)
   112d4:	001bf713          	andi	a4,s7,1
   112d8:	cf01                	beqz	a4,112f0 <_vfprintf_r+0xe30>
   112da:	01ace733          	or	a4,s9,s10
   112de:	cb09                	beqz	a4,112f0 <_vfprintf_r+0xe30>
   112e0:	03000713          	li	a4,48
   112e4:	0ce10423          	sb	a4,200(sp)
   112e8:	0d1104a3          	sb	a7,201(sp)
   112ec:	002beb93          	ori	s7,s7,2
   112f0:	bffbfd93          	andi	s11,s7,-1025
   112f4:	4689                	li	a3,2
   112f6:	d68ff06f          	j	1085e <_vfprintf_r+0x39e>
   112fa:	0014c883          	lbu	a7,1(s1)
   112fe:	200beb93          	ori	s7,s7,512
   11302:	0485                	addi	s1,s1,1
   11304:	ae6ff06f          	j	105ea <_vfprintf_r+0x12a>
   11308:	6779                	lui	a4,0x1e
   1130a:	d4870793          	addi	a5,a4,-696 # 1dd48 <__clzsi2+0x5c>
   1130e:	de3e                	sw	a5,60(sp)
   11310:	b75d                	j	112b6 <_vfprintf_r+0xdf6>
   11312:	45a2                	lw	a1,8(sp)
   11314:	11d0                	addi	a2,sp,228
   11316:	854e                	mv	a0,s3
   11318:	79a070ef          	jal	ra,18ab2 <__sprint_r>
   1131c:	be0516e3          	bnez	a0,10f08 <_vfprintf_r+0xa48>
   11320:	573e                	lw	a4,236(sp)
   11322:	845a                	mv	s0,s6
   11324:	b415                	j	10d48 <_vfprintf_r+0x888>
   11326:	0014c883          	lbu	a7,1(s1)
   1132a:	020beb93          	ori	s7,s7,32
   1132e:	0485                	addi	s1,s1,1
   11330:	abaff06f          	j	105ea <_vfprintf_r+0x12a>
   11334:	4719                	li	a4,6
   11336:	8d4a                	mv	s10,s2
   11338:	69276d63          	bltu	a4,s2,119d2 <_vfprintf_r+0x1512>
   1133c:	6ff9                	lui	t6,0x1e
   1133e:	8cea                	mv	s9,s10
   11340:	cc56                	sw	s5,24(sp)
   11342:	d70f8c13          	addi	s8,t6,-656 # 1dd70 <__clzsi2+0x84>
   11346:	af4ff06f          	j	1063a <_vfprintf_r+0x17a>
   1134a:	6879                	lui	a6,0x1e
   1134c:	45c1                	li	a1,16
   1134e:	562e                	lw	a2,232(sp)
   11350:	f8080a93          	addi	s5,a6,-128 # 1df80 <zeroes.0>
   11354:	2d25dc63          	bge	a1,s2,1162c <_vfprintf_r+0x116c>
   11358:	4da2                	lw	s11,8(sp)
   1135a:	4e41                	li	t3,16
   1135c:	4d1d                	li	s10,7
   1135e:	a021                	j	11366 <_vfprintf_r+0xea6>
   11360:	1941                	addi	s2,s2,-16
   11362:	2d2e5563          	bge	t3,s2,1162c <_vfprintf_r+0x116c>
   11366:	0741                	addi	a4,a4,16
   11368:	0605                	addi	a2,a2,1
   1136a:	01542023          	sw	s5,0(s0)
   1136e:	01c42223          	sw	t3,4(s0)
   11372:	d7ba                	sw	a4,236(sp)
   11374:	d5b2                	sw	a2,232(sp)
   11376:	0421                	addi	s0,s0,8
   11378:	fecd54e3          	bge	s10,a2,11360 <_vfprintf_r+0xea0>
   1137c:	11d0                	addi	a2,sp,228
   1137e:	85ee                	mv	a1,s11
   11380:	854e                	mv	a0,s3
   11382:	730070ef          	jal	ra,18ab2 <__sprint_r>
   11386:	b80511e3          	bnez	a0,10f08 <_vfprintf_r+0xa48>
   1138a:	573e                	lw	a4,236(sp)
   1138c:	562e                	lw	a2,232(sp)
   1138e:	845a                	mv	s0,s6
   11390:	4e41                	li	t3,16
   11392:	b7f9                	j	11360 <_vfprintf_r+0xea0>
   11394:	47e2                	lw	a5,24(sp)
   11396:	010bf713          	andi	a4,s7,16
   1139a:	0007ac83          	lw	s9,0(a5)
   1139e:	0791                	addi	a5,a5,4
   113a0:	cc3e                	sw	a5,24(sp)
   113a2:	e729                	bnez	a4,113ec <_vfprintf_r+0xf2c>
   113a4:	040bf713          	andi	a4,s7,64
   113a8:	cf15                	beqz	a4,113e4 <_vfprintf_r+0xf24>
   113aa:	0cc2                	slli	s9,s9,0x10
   113ac:	010cdc93          	srli	s9,s9,0x10
   113b0:	4d01                	li	s10,0
   113b2:	b70d                	j	112d4 <_vfprintf_r+0xe14>
   113b4:	45a2                	lw	a1,8(sp)
   113b6:	11d0                	addi	a2,sp,228
   113b8:	854e                	mv	a0,s3
   113ba:	6f8070ef          	jal	ra,18ab2 <__sprint_r>
   113be:	b40515e3          	bnez	a0,10f08 <_vfprintf_r+0xa48>
   113c2:	573e                	lw	a4,236(sp)
   113c4:	562e                	lw	a2,232(sp)
   113c6:	8d5a                	mv	s10,s6
   113c8:	de6ff06f          	j	109ae <_vfprintf_r+0x4ee>
   113cc:	45a2                	lw	a1,8(sp)
   113ce:	11d0                	addi	a2,sp,228
   113d0:	854e                	mv	a0,s3
   113d2:	6e0070ef          	jal	ra,18ab2 <__sprint_r>
   113d6:	b20519e3          	bnez	a0,10f08 <_vfprintf_r+0xa48>
   113da:	5dbe                	lw	s11,236(sp)
   113dc:	592e                	lw	s2,232(sp)
   113de:	8d5a                	mv	s10,s6
   113e0:	deeff06f          	j	109ce <_vfprintf_r+0x50e>
   113e4:	200bf713          	andi	a4,s7,512
   113e8:	60071863          	bnez	a4,119f8 <_vfprintf_r+0x1538>
   113ec:	4d01                	li	s10,0
   113ee:	b5dd                	j	112d4 <_vfprintf_r+0xe14>
   113f0:	ccccde37          	lui	t3,0xccccd
   113f4:	4706                	lw	a4,64(sp)
   113f6:	400dfe93          	andi	t4,s11,1024
   113fa:	4581                	li	a1,0
   113fc:	1b10                	addi	a2,sp,432
   113fe:	4815                	li	a6,5
   11400:	ccde0693          	addi	a3,t3,-819 # cccccccd <__BSS_END__+0xcccace95>
   11404:	ccce0b93          	addi	s7,t3,-820
   11408:	0ff00a93          	li	s5,255
   1140c:	a081                	j	1144c <_vfprintf_r+0xf8c>
   1140e:	019c37b3          	sltu	a5,s8,s9
   11412:	97e2                	add	a5,a5,s8
   11414:	0307f7b3          	remu	a5,a5,a6
   11418:	40fc87b3          	sub	a5,s9,a5
   1141c:	00fcb633          	sltu	a2,s9,a5
   11420:	40cd0633          	sub	a2,s10,a2
   11424:	03778e33          	mul	t3,a5,s7
   11428:	02d60633          	mul	a2,a2,a3
   1142c:	02d7b533          	mulhu	a0,a5,a3
   11430:	9672                	add	a2,a2,t3
   11432:	02d787b3          	mul	a5,a5,a3
   11436:	962a                	add	a2,a2,a0
   11438:	01f61513          	slli	a0,a2,0x1f
   1143c:	8205                	srli	a2,a2,0x1
   1143e:	8385                	srli	a5,a5,0x1
   11440:	8fc9                	or	a5,a5,a0
   11442:	1a0d03e3          	beqz	s10,11de8 <_vfprintf_r+0x1928>
   11446:	8d32                	mv	s10,a2
   11448:	8cbe                	mv	s9,a5
   1144a:	861a                	mv	a2,t1
   1144c:	01ac8c33          	add	s8,s9,s10
   11450:	019c37b3          	sltu	a5,s8,s9
   11454:	97e2                	add	a5,a5,s8
   11456:	0307f7b3          	remu	a5,a5,a6
   1145a:	fff60313          	addi	t1,a2,-1
   1145e:	0585                	addi	a1,a1,1
   11460:	40fc87b3          	sub	a5,s9,a5
   11464:	00fcb533          	sltu	a0,s9,a5
   11468:	40ad0533          	sub	a0,s10,a0
   1146c:	02d7be33          	mulhu	t3,a5,a3
   11470:	02d50533          	mul	a0,a0,a3
   11474:	02d787b3          	mul	a5,a5,a3
   11478:	9572                	add	a0,a0,t3
   1147a:	057e                	slli	a0,a0,0x1f
   1147c:	8385                	srli	a5,a5,0x1
   1147e:	8fc9                	or	a5,a5,a0
   11480:	00279513          	slli	a0,a5,0x2
   11484:	97aa                	add	a5,a5,a0
   11486:	0786                	slli	a5,a5,0x1
   11488:	40fc87b3          	sub	a5,s9,a5
   1148c:	03078793          	addi	a5,a5,48
   11490:	fef60fa3          	sb	a5,-1(a2)
   11494:	f60e8de3          	beqz	t4,1140e <_vfprintf_r+0xf4e>
   11498:	00074783          	lbu	a5,0(a4)
   1149c:	f6f599e3          	bne	a1,a5,1140e <_vfprintf_r+0xf4e>
   114a0:	f75587e3          	beq	a1,s5,1140e <_vfprintf_r+0xf4e>
   114a4:	2e0d1863          	bnez	s10,11794 <_vfprintf_r+0x12d4>
   114a8:	47a5                	li	a5,9
   114aa:	2f97e563          	bltu	a5,s9,11794 <_vfprintf_r+0x12d4>
   114ae:	8c1a                	mv	s8,t1
   114b0:	1b1c                	addi	a5,sp,432
   114b2:	d22e                	sw	a1,36(sp)
   114b4:	c0ba                	sw	a4,64(sp)
   114b6:	41878d33          	sub	s10,a5,s8
   114ba:	8bee                	mv	s7,s11
   114bc:	b5cff06f          	j	10818 <_vfprintf_r+0x358>
   114c0:	573e                	lw	a4,236(sp)
   114c2:	562e                	lw	a2,232(sp)
   114c4:	65f9                	lui	a1,0x1e
   114c6:	d7858593          	addi	a1,a1,-648 # 1dd78 <__clzsi2+0x8c>
   114ca:	c00c                	sw	a1,0(s0)
   114cc:	0705                	addi	a4,a4,1
   114ce:	4585                	li	a1,1
   114d0:	0605                	addi	a2,a2,1
   114d2:	c04c                	sw	a1,4(s0)
   114d4:	d7ba                	sw	a4,236(sp)
   114d6:	d5b2                	sw	a2,232(sp)
   114d8:	459d                	li	a1,7
   114da:	0421                	addi	s0,s0,8
   114dc:	32c5c663          	blt	a1,a2,11808 <_vfprintf_r+0x1348>
   114e0:	e571                	bnez	a0,115ac <_vfprintf_r+0x10ec>
   114e2:	5792                	lw	a5,36(sp)
   114e4:	001bf613          	andi	a2,s7,1
   114e8:	8e5d                	or	a2,a2,a5
   114ea:	9e060663          	beqz	a2,106d6 <_vfprintf_r+0x216>
   114ee:	57d2                	lw	a5,52(sp)
   114f0:	562e                	lw	a2,232(sp)
   114f2:	56e2                	lw	a3,56(sp)
   114f4:	973e                	add	a4,a4,a5
   114f6:	0605                	addi	a2,a2,1
   114f8:	c014                	sw	a3,0(s0)
   114fa:	c05c                	sw	a5,4(s0)
   114fc:	d7ba                	sw	a4,236(sp)
   114fe:	d5b2                	sw	a2,232(sp)
   11500:	459d                	li	a1,7
   11502:	52c5c863          	blt	a1,a2,11a32 <_vfprintf_r+0x1572>
   11506:	0421                	addi	s0,s0,8
   11508:	a0c9                	j	115ca <_vfprintf_r+0x110a>
   1150a:	45a2                	lw	a1,8(sp)
   1150c:	11d0                	addi	a2,sp,228
   1150e:	854e                	mv	a0,s3
   11510:	5a2070ef          	jal	ra,18ab2 <__sprint_r>
   11514:	9e051ae3          	bnez	a0,10f08 <_vfprintf_r+0xa48>
   11518:	573e                	lw	a4,236(sp)
   1151a:	845a                	mv	s0,s6
   1151c:	80bff06f          	j	10d26 <_vfprintf_r+0x866>
   11520:	01542023          	sw	s5,0(s0)
   11524:	01242223          	sw	s2,4(s0)
   11528:	974a                	add	a4,a4,s2
   1152a:	0605                	addi	a2,a2,1
   1152c:	d7ba                	sw	a4,236(sp)
   1152e:	d5b2                	sw	a2,232(sp)
   11530:	459d                	li	a1,7
   11532:	9ac5d163          	bge	a1,a2,106d4 <_vfprintf_r+0x214>
   11536:	d00ff06f          	j	10a36 <_vfprintf_r+0x576>
   1153a:	574e                	lw	a4,240(sp)
   1153c:	110c                	addi	a1,sp,160
   1153e:	1908                	addi	a0,sp,176
   11540:	d93a                	sw	a4,176(sp)
   11542:	575e                	lw	a4,244(sp)
   11544:	d102                	sw	zero,160(sp)
   11546:	d302                	sw	zero,164(sp)
   11548:	db3a                	sw	a4,180(sp)
   1154a:	576e                	lw	a4,248(sp)
   1154c:	d502                	sw	zero,168(sp)
   1154e:	d702                	sw	zero,172(sp)
   11550:	dd3a                	sw	a4,184(sp)
   11552:	577e                	lw	a4,252(sp)
   11554:	df3a                	sw	a4,188(sp)
   11556:	0640a0ef          	jal	ra,1b5ba <__letf2>
   1155a:	48d2                	lw	a7,20(sp)
   1155c:	08054ee3          	bltz	a0,11df8 <_vfprintf_r+0x1938>
   11560:	0c714703          	lbu	a4,199(sp)
   11564:	04700693          	li	a3,71
   11568:	2b16db63          	bge	a3,a7,1181e <_vfprintf_r+0x135e>
   1156c:	6ff9                	lui	t6,0x1e
   1156e:	d3cf8c13          	addi	s8,t6,-708 # 1dd3c <__clzsi2+0x50>
   11572:	ca02                	sw	zero,20(sp)
   11574:	d602                	sw	zero,44(sp)
   11576:	d402                	sw	zero,40(sp)
   11578:	d002                	sw	zero,32(sp)
   1157a:	f7fbfb93          	andi	s7,s7,-129
   1157e:	4c8d                	li	s9,3
   11580:	4d0d                	li	s10,3
   11582:	4901                	li	s2,0
   11584:	aa071663          	bnez	a4,10830 <_vfprintf_r+0x370>
   11588:	8bcff06f          	j	10644 <_vfprintf_r+0x184>
   1158c:	47e2                	lw	a5,24(sp)
   1158e:	4742                	lw	a4,16(sp)
   11590:	439c                	lw	a5,0(a5)
   11592:	c398                	sw	a4,0(a5)
   11594:	f3cff06f          	j	10cd0 <_vfprintf_r+0x810>
   11598:	87a6                	mv	a5,s1
   1159a:	84d2                	mv	s1,s4
   1159c:	8a56                	mv	s4,s5
   1159e:	8abe                	mv	s5,a5
   115a0:	9da2                	add	s11,s11,s0
   115a2:	0905                	addi	s2,s2,1
   115a4:	015d2023          	sw	s5,0(s10)
   115a8:	c5cff06f          	j	10a04 <_vfprintf_r+0x544>
   115ac:	57d2                	lw	a5,52(sp)
   115ae:	562e                	lw	a2,232(sp)
   115b0:	56e2                	lw	a3,56(sp)
   115b2:	973e                	add	a4,a4,a5
   115b4:	0605                	addi	a2,a2,1
   115b6:	c014                	sw	a3,0(s0)
   115b8:	c05c                	sw	a5,4(s0)
   115ba:	d7ba                	sw	a4,236(sp)
   115bc:	d5b2                	sw	a2,232(sp)
   115be:	459d                	li	a1,7
   115c0:	0421                	addi	s0,s0,8
   115c2:	46c5c863          	blt	a1,a2,11a32 <_vfprintf_r+0x1572>
   115c6:	0c0546e3          	bltz	a0,11e92 <_vfprintf_r+0x19d2>
   115ca:	5792                	lw	a5,36(sp)
   115cc:	0605                	addi	a2,a2,1
   115ce:	01842023          	sw	s8,0(s0)
   115d2:	973e                	add	a4,a4,a5
   115d4:	c05c                	sw	a5,4(s0)
   115d6:	d7ba                	sw	a4,236(sp)
   115d8:	d5b2                	sw	a2,232(sp)
   115da:	459d                	li	a1,7
   115dc:	8ec5dc63          	bge	a1,a2,106d4 <_vfprintf_r+0x214>
   115e0:	c56ff06f          	j	10a36 <_vfprintf_r+0x576>
   115e4:	8562                	mv	a0,s8
   115e6:	c8c6                	sw	a7,80(sp)
   115e8:	e75fe0ef          	jal	ra,1045c <strlen>
   115ec:	0c714703          	lbu	a4,199(sp)
   115f0:	fff54693          	not	a3,a0
   115f4:	86fd                	srai	a3,a3,0x1f
   115f6:	cc56                	sw	s5,24(sp)
   115f8:	ca02                	sw	zero,20(sp)
   115fa:	d602                	sw	zero,44(sp)
   115fc:	d402                	sw	zero,40(sp)
   115fe:	d002                	sw	zero,32(sp)
   11600:	48c6                	lw	a7,80(sp)
   11602:	8d2a                	mv	s10,a0
   11604:	00d57cb3          	and	s9,a0,a3
   11608:	4901                	li	s2,0
   1160a:	a2071363          	bnez	a4,10830 <_vfprintf_r+0x370>
   1160e:	836ff06f          	j	10644 <_vfprintf_r+0x184>
   11612:	577e                	lw	a4,252(sp)
   11614:	40074363          	bltz	a4,11a1a <_vfprintf_r+0x155a>
   11618:	0c714703          	lbu	a4,199(sp)
   1161c:	04700693          	li	a3,71
   11620:	0116dce3          	bge	a3,a7,11e38 <_vfprintf_r+0x1978>
   11624:	6ff9                	lui	t6,0x1e
   11626:	d44f8c13          	addi	s8,t6,-700 # 1dd44 <__clzsi2+0x58>
   1162a:	b7a1                	j	11572 <_vfprintf_r+0x10b2>
   1162c:	974a                	add	a4,a4,s2
   1162e:	0605                	addi	a2,a2,1
   11630:	01542023          	sw	s5,0(s0)
   11634:	01242223          	sw	s2,4(s0)
   11638:	d7ba                	sw	a4,236(sp)
   1163a:	d5b2                	sw	a2,232(sp)
   1163c:	459d                	li	a1,7
   1163e:	0421                	addi	s0,s0,8
   11640:	a4c5d5e3          	bge	a1,a2,1108a <_vfprintf_r+0xbca>
   11644:	45a2                	lw	a1,8(sp)
   11646:	11d0                	addi	a2,sp,228
   11648:	854e                	mv	a0,s3
   1164a:	468070ef          	jal	ra,18ab2 <__sprint_r>
   1164e:	8a051de3          	bnez	a0,10f08 <_vfprintf_r+0xa48>
   11652:	573e                	lw	a4,236(sp)
   11654:	845a                	mv	s0,s6
   11656:	bc15                	j	1108a <_vfprintf_r+0xbca>
   11658:	5d22                	lw	s10,40(sp)
   1165a:	6e79                	lui	t3,0x1e
   1165c:	caa6                	sw	s1,84(sp)
   1165e:	ccde                	sw	s7,88(sp)
   11660:	d466                	sw	s9,40(sp)
   11662:	ced2                	sw	s4,92(sp)
   11664:	8622                	mv	a2,s0
   11666:	4b86                	lw	s7,64(sp)
   11668:	5432                	lw	s0,44(sp)
   1166a:	4cb6                	lw	s9,76(sp)
   1166c:	44a2                	lw	s1,8(sp)
   1166e:	491d                	li	s2,7
   11670:	4dc1                	li	s11,16
   11672:	f80e0a93          	addi	s5,t3,-128 # 1df80 <zeroes.0>
   11676:	060d0463          	beqz	s10,116de <_vfprintf_r+0x121e>
   1167a:	c465                	beqz	s0,11762 <_vfprintf_r+0x12a2>
   1167c:	147d                	addi	s0,s0,-1
   1167e:	47a6                	lw	a5,72(sp)
   11680:	9766                	add	a4,a4,s9
   11682:	01962223          	sw	s9,4(a2)
   11686:	c21c                	sw	a5,0(a2)
   11688:	57ae                	lw	a5,232(sp)
   1168a:	d7ba                	sw	a4,236(sp)
   1168c:	0621                	addi	a2,a2,8
   1168e:	0785                	addi	a5,a5,1
   11690:	d5be                	sw	a5,232(sp)
   11692:	0cf94b63          	blt	s2,a5,11768 <_vfprintf_r+0x12a8>
   11696:	47c6                	lw	a5,80(sp)
   11698:	000bc683          	lbu	a3,0(s7)
   1169c:	41878a33          	sub	s4,a5,s8
   116a0:	0146d363          	bge	a3,s4,116a6 <_vfprintf_r+0x11e6>
   116a4:	8a36                	mv	s4,a3
   116a6:	03405063          	blez	s4,116c6 <_vfprintf_r+0x1206>
   116aa:	56ae                	lw	a3,232(sp)
   116ac:	9752                	add	a4,a4,s4
   116ae:	01862023          	sw	s8,0(a2)
   116b2:	0685                	addi	a3,a3,1
   116b4:	01462223          	sw	s4,4(a2)
   116b8:	d7ba                	sw	a4,236(sp)
   116ba:	d5b6                	sw	a3,232(sp)
   116bc:	0cd94063          	blt	s2,a3,1177c <_vfprintf_r+0x12bc>
   116c0:	000bc683          	lbu	a3,0(s7)
   116c4:	0621                	addi	a2,a2,8
   116c6:	fffa4593          	not	a1,s4
   116ca:	85fd                	srai	a1,a1,0x1f
   116cc:	00ba77b3          	and	a5,s4,a1
   116d0:	40f68a33          	sub	s4,a3,a5
   116d4:	03404163          	bgtz	s4,116f6 <_vfprintf_r+0x1236>
   116d8:	9c36                	add	s8,s8,a3
   116da:	fa0d10e3          	bnez	s10,1167a <_vfprintf_r+0x11ba>
   116de:	fc59                	bnez	s0,1167c <_vfprintf_r+0x11bc>
   116e0:	47c6                	lw	a5,80(sp)
   116e2:	c0de                	sw	s7,64(sp)
   116e4:	44d6                	lw	s1,84(sp)
   116e6:	4be6                	lw	s7,88(sp)
   116e8:	4a76                	lw	s4,92(sp)
   116ea:	5ca2                	lw	s9,40(sp)
   116ec:	8432                	mv	s0,a2
   116ee:	9b87f4e3          	bgeu	a5,s8,11096 <_vfprintf_r+0xbd6>
   116f2:	8c3e                	mv	s8,a5
   116f4:	b24d                	j	11096 <_vfprintf_r+0xbd6>
   116f6:	65f9                	lui	a1,0x1e
   116f8:	56ae                	lw	a3,232(sp)
   116fa:	f8058593          	addi	a1,a1,-128 # 1df80 <zeroes.0>
   116fe:	054dd463          	bge	s11,s4,11746 <_vfprintf_r+0x1286>
   11702:	d022                	sw	s0,32(sp)
   11704:	8452                	mv	s0,s4
   11706:	8a56                	mv	s4,s5
   11708:	a021                	j	11710 <_vfprintf_r+0x1250>
   1170a:	1441                	addi	s0,s0,-16
   1170c:	028dda63          	bge	s11,s0,11740 <_vfprintf_r+0x1280>
   11710:	0741                	addi	a4,a4,16
   11712:	0685                	addi	a3,a3,1
   11714:	01562023          	sw	s5,0(a2)
   11718:	01b62223          	sw	s11,4(a2)
   1171c:	d7ba                	sw	a4,236(sp)
   1171e:	d5b6                	sw	a3,232(sp)
   11720:	0621                	addi	a2,a2,8
   11722:	fed954e3          	bge	s2,a3,1170a <_vfprintf_r+0x124a>
   11726:	11d0                	addi	a2,sp,228
   11728:	85a6                	mv	a1,s1
   1172a:	854e                	mv	a0,s3
   1172c:	386070ef          	jal	ra,18ab2 <__sprint_r>
   11730:	fc051c63          	bnez	a0,10f08 <_vfprintf_r+0xa48>
   11734:	1441                	addi	s0,s0,-16
   11736:	573e                	lw	a4,236(sp)
   11738:	56ae                	lw	a3,232(sp)
   1173a:	865a                	mv	a2,s6
   1173c:	fc8dcae3          	blt	s11,s0,11710 <_vfprintf_r+0x1250>
   11740:	85d2                	mv	a1,s4
   11742:	8a22                	mv	s4,s0
   11744:	5402                	lw	s0,32(sp)
   11746:	9752                	add	a4,a4,s4
   11748:	0685                	addi	a3,a3,1
   1174a:	c20c                	sw	a1,0(a2)
   1174c:	01462223          	sw	s4,4(a2)
   11750:	d7ba                	sw	a4,236(sp)
   11752:	d5b6                	sw	a3,232(sp)
   11754:	66d94d63          	blt	s2,a3,11dce <_vfprintf_r+0x190e>
   11758:	000bc683          	lbu	a3,0(s7)
   1175c:	0621                	addi	a2,a2,8
   1175e:	9c36                	add	s8,s8,a3
   11760:	bfad                	j	116da <_vfprintf_r+0x121a>
   11762:	1bfd                	addi	s7,s7,-1
   11764:	1d7d                	addi	s10,s10,-1
   11766:	bf21                	j	1167e <_vfprintf_r+0x11be>
   11768:	11d0                	addi	a2,sp,228
   1176a:	85a6                	mv	a1,s1
   1176c:	854e                	mv	a0,s3
   1176e:	344070ef          	jal	ra,18ab2 <__sprint_r>
   11772:	f8051b63          	bnez	a0,10f08 <_vfprintf_r+0xa48>
   11776:	573e                	lw	a4,236(sp)
   11778:	865a                	mv	a2,s6
   1177a:	bf31                	j	11696 <_vfprintf_r+0x11d6>
   1177c:	11d0                	addi	a2,sp,228
   1177e:	85a6                	mv	a1,s1
   11780:	854e                	mv	a0,s3
   11782:	330070ef          	jal	ra,18ab2 <__sprint_r>
   11786:	f8051163          	bnez	a0,10f08 <_vfprintf_r+0xa48>
   1178a:	000bc683          	lbu	a3,0(s7)
   1178e:	573e                	lw	a4,236(sp)
   11790:	865a                	mv	a2,s6
   11792:	bf15                	j	116c6 <_vfprintf_r+0x1206>
   11794:	47b6                	lw	a5,76(sp)
   11796:	45a6                	lw	a1,72(sp)
   11798:	d476                	sw	t4,40(sp)
   1179a:	40f30333          	sub	t1,t1,a5
   1179e:	863e                	mv	a2,a5
   117a0:	851a                	mv	a0,t1
   117a2:	d246                	sw	a7,36(sp)
   117a4:	d03a                	sw	a4,32(sp)
   117a6:	ca1a                	sw	t1,20(sp)
   117a8:	5fe050ef          	jal	ra,16da6 <strncpy>
   117ac:	019c37b3          	sltu	a5,s8,s9
   117b0:	4615                	li	a2,5
   117b2:	97e2                	add	a5,a5,s8
   117b4:	02c7f7b3          	remu	a5,a5,a2
   117b8:	5702                	lw	a4,32(sp)
   117ba:	ccccd637          	lui	a2,0xccccd
   117be:	ccd60e13          	addi	t3,a2,-819 # cccccccd <__BSS_END__+0xcccace95>
   117c2:	ccc60513          	addi	a0,a2,-820
   117c6:	00174603          	lbu	a2,1(a4)
   117ca:	4352                	lw	t1,20(sp)
   117cc:	5892                	lw	a7,36(sp)
   117ce:	00c03633          	snez	a2,a2
   117d2:	9732                	add	a4,a4,a2
   117d4:	5ea2                	lw	t4,40(sp)
   117d6:	4581                	li	a1,0
   117d8:	4815                	li	a6,5
   117da:	86f2                	mv	a3,t3
   117dc:	40fc87b3          	sub	a5,s9,a5
   117e0:	00fcb633          	sltu	a2,s9,a5
   117e4:	40cd0633          	sub	a2,s10,a2
   117e8:	02a78533          	mul	a0,a5,a0
   117ec:	03c60633          	mul	a2,a2,t3
   117f0:	03c7bf33          	mulhu	t5,a5,t3
   117f4:	962a                	add	a2,a2,a0
   117f6:	03c78533          	mul	a0,a5,t3
   117fa:	967a                	add	a2,a2,t5
   117fc:	01f61793          	slli	a5,a2,0x1f
   11800:	8205                	srli	a2,a2,0x1
   11802:	8105                	srli	a0,a0,0x1
   11804:	8fc9                	or	a5,a5,a0
   11806:	b181                	j	11446 <_vfprintf_r+0xf86>
   11808:	45a2                	lw	a1,8(sp)
   1180a:	11d0                	addi	a2,sp,228
   1180c:	854e                	mv	a0,s3
   1180e:	2a4070ef          	jal	ra,18ab2 <__sprint_r>
   11812:	ee051b63          	bnez	a0,10f08 <_vfprintf_r+0xa48>
   11816:	453e                	lw	a0,204(sp)
   11818:	573e                	lw	a4,236(sp)
   1181a:	845a                	mv	s0,s6
   1181c:	b1d1                	j	114e0 <_vfprintf_r+0x1020>
   1181e:	6ff9                	lui	t6,0x1e
   11820:	d38f8c13          	addi	s8,t6,-712 # 1dd38 <__clzsi2+0x4c>
   11824:	b3b9                	j	11572 <_vfprintf_r+0x10b2>
   11826:	86ca                	mv	a3,s2
   11828:	4609                	li	a2,2
   1182a:	0b010b93          	addi	s7,sp,176
   1182e:	099c                	addi	a5,sp,208
   11830:	0dc10813          	addi	a6,sp,220
   11834:	01f8                	addi	a4,sp,204
   11836:	85de                	mv	a1,s7
   11838:	854e                	mv	a0,s3
   1183a:	cac6                	sw	a7,84(sp)
   1183c:	c8b6                	sw	a3,80(sp)
   1183e:	d97a                	sw	t5,176(sp)
   11840:	d47a                	sw	t5,40(sp)
   11842:	db76                	sw	t4,180(sp)
   11844:	d276                	sw	t4,36(sp)
   11846:	dd72                	sw	t3,184(sp)
   11848:	d072                	sw	t3,32(sp)
   1184a:	df6e                	sw	s11,188(sp)
   1184c:	0cd020ef          	jal	ra,14118 <_ldtoa_r>
   11850:	48d6                	lw	a7,84(sp)
   11852:	06700793          	li	a5,103
   11856:	5e02                	lw	t3,32(sp)
   11858:	5e92                	lw	t4,36(sp)
   1185a:	5f22                	lw	t5,40(sp)
   1185c:	46c6                	lw	a3,80(sp)
   1185e:	8c2a                	mv	s8,a0
   11860:	4ef88463          	beq	a7,a5,11d48 <_vfprintf_r+0x1888>
   11864:	04700793          	li	a5,71
   11868:	4ef88063          	beq	a7,a5,11d48 <_vfprintf_r+0x1888>
   1186c:	fdf8fa93          	andi	s5,a7,-33
   11870:	04600613          	li	a2,70
   11874:	00d50cb3          	add	s9,a0,a3
   11878:	0a010d13          	addi	s10,sp,160
   1187c:	00ca9a63          	bne	s5,a2,11890 <_vfprintf_r+0x13d0>
   11880:	00054583          	lbu	a1,0(a0)
   11884:	03000613          	li	a2,48
   11888:	3ec58063          	beq	a1,a2,11c68 <_vfprintf_r+0x17a8>
   1188c:	46be                	lw	a3,204(sp)
   1188e:	9cb6                	add	s9,s9,a3
   11890:	855e                	mv	a0,s7
   11892:	85ea                	mv	a1,s10
   11894:	d046                	sw	a7,32(sp)
   11896:	d97a                	sw	t5,176(sp)
   11898:	db76                	sw	t4,180(sp)
   1189a:	dd72                	sw	t3,184(sp)
   1189c:	df6e                	sw	s11,188(sp)
   1189e:	d102                	sw	zero,160(sp)
   118a0:	d302                	sw	zero,164(sp)
   118a2:	d502                	sw	zero,168(sp)
   118a4:	d702                	sw	zero,172(sp)
   118a6:	313090ef          	jal	ra,1b3b8 <__eqtf2>
   118aa:	5882                	lw	a7,32(sp)
   118ac:	8be6                	mv	s7,s9
   118ae:	cd11                	beqz	a0,118ca <_vfprintf_r+0x140a>
   118b0:	4bfe                	lw	s7,220(sp)
   118b2:	019bfc63          	bgeu	s7,s9,118ca <_vfprintf_r+0x140a>
   118b6:	03000613          	li	a2,48
   118ba:	001b8793          	addi	a5,s7,1
   118be:	cfbe                	sw	a5,220(sp)
   118c0:	00cb8023          	sb	a2,0(s7)
   118c4:	4bfe                	lw	s7,220(sp)
   118c6:	ff9beae3          	bltu	s7,s9,118ba <_vfprintf_r+0x13fa>
   118ca:	418b87b3          	sub	a5,s7,s8
   118ce:	d23e                	sw	a5,36(sp)
   118d0:	46be                	lw	a3,204(sp)
   118d2:	04700793          	li	a5,71
   118d6:	d036                	sw	a3,32(sp)
   118d8:	48fa8163          	beq	s5,a5,11d5a <_vfprintf_r+0x189a>
   118dc:	04600793          	li	a5,70
   118e0:	60fa8263          	beq	s5,a5,11ee4 <_vfprintf_r+0x1a24>
   118e4:	fff68793          	addi	a5,a3,-1
   118e8:	c7be                	sw	a5,204(sp)
   118ea:	06100713          	li	a4,97
   118ee:	78e88863          	beq	a7,a4,1207e <_vfprintf_r+0x1bbe>
   118f2:	04100613          	li	a2,65
   118f6:	05000713          	li	a4,80
   118fa:	46c89a63          	bne	a7,a2,11d6e <_vfprintf_r+0x18ae>
   118fe:	4605                	li	a2,1
   11900:	0ce10a23          	sb	a4,212(sp)
   11904:	02b00713          	li	a4,43
   11908:	0007d663          	bgez	a5,11914 <_vfprintf_r+0x1454>
   1190c:	4785                	li	a5,1
   1190e:	8f95                	sub	a5,a5,a3
   11910:	02d00713          	li	a4,45
   11914:	0ce10aa3          	sb	a4,213(sp)
   11918:	4725                	li	a4,9
   1191a:	62f75163          	bge	a4,a5,11f3c <_vfprintf_r+0x1a7c>
   1191e:	0e310813          	addi	a6,sp,227
   11922:	8642                	mv	a2,a6
   11924:	45a9                	li	a1,10
   11926:	06300e13          	li	t3,99
   1192a:	02b7e733          	rem	a4,a5,a1
   1192e:	86b2                	mv	a3,a2
   11930:	853e                	mv	a0,a5
   11932:	167d                	addi	a2,a2,-1
   11934:	03070713          	addi	a4,a4,48
   11938:	fee68fa3          	sb	a4,-1(a3)
   1193c:	02b7c7b3          	div	a5,a5,a1
   11940:	feae45e3          	blt	t3,a0,1192a <_vfprintf_r+0x146a>
   11944:	03078793          	addi	a5,a5,48
   11948:	ffe68713          	addi	a4,a3,-2
   1194c:	fef60fa3          	sb	a5,-1(a2)
   11950:	73077a63          	bgeu	a4,a6,12084 <_vfprintf_r+0x1bc4>
   11954:	0d610793          	addi	a5,sp,214
   11958:	00074603          	lbu	a2,0(a4)
   1195c:	0705                	addi	a4,a4,1
   1195e:	0785                	addi	a5,a5,1
   11960:	fec78fa3          	sb	a2,-1(a5)
   11964:	ff071ae3          	bne	a4,a6,11958 <_vfprintf_r+0x1498>
   11968:	0e510793          	addi	a5,sp,229
   1196c:	0d610713          	addi	a4,sp,214
   11970:	8f95                	sub	a5,a5,a3
   11972:	97ba                	add	a5,a5,a4
   11974:	09d8                	addi	a4,sp,212
   11976:	8f99                	sub	a5,a5,a4
   11978:	c2be                	sw	a5,68(sp)
   1197a:	4696                	lw	a3,68(sp)
   1197c:	5712                	lw	a4,36(sp)
   1197e:	4785                	li	a5,1
   11980:	00e68d33          	add	s10,a3,a4
   11984:	64e7d263          	bge	a5,a4,11fc8 <_vfprintf_r+0x1b08>
   11988:	57d2                	lw	a5,52(sp)
   1198a:	9d3e                	add	s10,s10,a5
   1198c:	57b2                	lw	a5,44(sp)
   1198e:	fffd4693          	not	a3,s10
   11992:	86fd                	srai	a3,a3,0x1f
   11994:	bff7f793          	andi	a5,a5,-1025
   11998:	1007eb93          	ori	s7,a5,256
   1199c:	00dd7cb3          	and	s9,s10,a3
   119a0:	d602                	sw	zero,44(sp)
   119a2:	d402                	sw	zero,40(sp)
   119a4:	d002                	sw	zero,32(sp)
   119a6:	5786                	lw	a5,96(sp)
   119a8:	3c078763          	beqz	a5,11d76 <_vfprintf_r+0x18b6>
   119ac:	02d00713          	li	a4,45
   119b0:	0ce103a3          	sb	a4,199(sp)
   119b4:	4901                	li	s2,0
   119b6:	0c85                	addi	s9,s9,1
   119b8:	c8dfe06f          	j	10644 <_vfprintf_r+0x184>
   119bc:	45a2                	lw	a1,8(sp)
   119be:	11d0                	addi	a2,sp,228
   119c0:	854e                	mv	a0,s3
   119c2:	0f0070ef          	jal	ra,18ab2 <__sprint_r>
   119c6:	d4051163          	bnez	a0,10f08 <_vfprintf_r+0xa48>
   119ca:	573e                	lw	a4,236(sp)
   119cc:	845a                	mv	s0,s6
   119ce:	ea8ff06f          	j	11076 <_vfprintf_r+0xbb6>
   119d2:	4d19                	li	s10,6
   119d4:	b2a5                	j	1133c <_vfprintf_r+0xe7c>
   119d6:	40c78633          	sub	a2,a5,a2
   119da:	47c6                	lw	a5,80(sp)
   119dc:	41878933          	sub	s2,a5,s8
   119e0:	f1265863          	bge	a2,s2,110f0 <_vfprintf_r+0xc30>
   119e4:	8932                	mv	s2,a2
   119e6:	f0aff06f          	j	110f0 <_vfprintf_r+0xc30>
   119ea:	47e2                	lw	a5,24(sp)
   119ec:	4742                	lw	a4,16(sp)
   119ee:	439c                	lw	a5,0(a5)
   119f0:	00e79023          	sh	a4,0(a5)
   119f4:	adcff06f          	j	10cd0 <_vfprintf_r+0x810>
   119f8:	0ffcfc93          	zext.b	s9,s9
   119fc:	4d01                	li	s10,0
   119fe:	b8d9                	j	112d4 <_vfprintf_r+0xe14>
   11a00:	0ce2                	slli	s9,s9,0x18
   11a02:	418cdc93          	srai	s9,s9,0x18
   11a06:	41fcdd13          	srai	s10,s9,0x1f
   11a0a:	876a                	mv	a4,s10
   11a0c:	de9fe06f          	j	107f4 <_vfprintf_r+0x334>
   11a10:	0ffcfc93          	zext.b	s9,s9
   11a14:	4d01                	li	s10,0
   11a16:	e43fe06f          	j	10858 <_vfprintf_r+0x398>
   11a1a:	02d00713          	li	a4,45
   11a1e:	0ce103a3          	sb	a4,199(sp)
   11a22:	beed                	j	1161c <_vfprintf_r+0x115c>
   11a24:	45a2                	lw	a1,8(sp)
   11a26:	5542                	lw	a0,48(sp)
   11a28:	11d0                	addi	a2,sp,228
   11a2a:	088070ef          	jal	ra,18ab2 <__sprint_r>
   11a2e:	cebfe06f          	j	10718 <_vfprintf_r+0x258>
   11a32:	45a2                	lw	a1,8(sp)
   11a34:	11d0                	addi	a2,sp,228
   11a36:	854e                	mv	a0,s3
   11a38:	07a070ef          	jal	ra,18ab2 <__sprint_r>
   11a3c:	cc051663          	bnez	a0,10f08 <_vfprintf_r+0xa48>
   11a40:	453e                	lw	a0,204(sp)
   11a42:	573e                	lw	a4,236(sp)
   11a44:	562e                	lw	a2,232(sp)
   11a46:	845a                	mv	s0,s6
   11a48:	bebd                	j	115c6 <_vfprintf_r+0x1106>
   11a4a:	05800713          	li	a4,88
   11a4e:	03000693          	li	a3,48
   11a52:	002be793          	ori	a5,s7,2
   11a56:	0ce104a3          	sb	a4,201(sp)
   11a5a:	0cd10423          	sb	a3,200(sp)
   11a5e:	06300713          	li	a4,99
   11a62:	d63e                	sw	a5,44(sp)
   11a64:	ca02                	sw	zero,20(sp)
   11a66:	14c10c13          	addi	s8,sp,332
   11a6a:	55274363          	blt	a4,s2,11fb0 <_vfprintf_r+0x1af0>
   11a6e:	5dfe                	lw	s11,252(sp)
   11a70:	102be793          	ori	a5,s7,258
   11a74:	cebe                	sw	a5,92(sp)
   11a76:	d082                	sw	zero,96(sp)
   11a78:	5f4e                	lw	t5,240(sp)
   11a7a:	5ede                	lw	t4,244(sp)
   11a7c:	5e6e                	lw	t3,248(sp)
   11a7e:	340dc063          	bltz	s11,11dbe <_vfprintf_r+0x18fe>
   11a82:	06100793          	li	a5,97
   11a86:	00f88463          	beq	a7,a5,11a8e <_vfprintf_r+0x15ce>
   11a8a:	ecbfe06f          	j	10954 <_vfprintf_r+0x494>
   11a8e:	0b010b93          	addi	s7,sp,176
   11a92:	855e                	mv	a0,s7
   11a94:	d2c6                	sw	a7,100(sp)
   11a96:	d97a                	sw	t5,176(sp)
   11a98:	db76                	sw	t4,180(sp)
   11a9a:	dd72                	sw	t3,184(sp)
   11a9c:	df6e                	sw	s11,188(sp)
   11a9e:	62b0b0ef          	jal	ra,1d8c8 <__trunctfdf2>
   11aa2:	01e8                	addi	a0,sp,204
   11aa4:	785040ef          	jal	ra,16a28 <frexp>
   11aa8:	855e                	mv	a0,s7
   11aaa:	4930b0ef          	jal	ra,1d73c <__extenddftf2>
   11aae:	091c                	addi	a5,sp,144
   11ab0:	85be                	mv	a1,a5
   11ab2:	d03e                	sw	a5,32(sp)
   11ab4:	57ca                	lw	a5,176(sp)
   11ab6:	0a010d13          	addi	s10,sp,160
   11aba:	0110                	addi	a2,sp,128
   11abc:	c93e                	sw	a5,144(sp)
   11abe:	57da                	lw	a5,180(sp)
   11ac0:	856a                	mv	a0,s10
   11ac2:	cab2                	sw	a2,84(sp)
   11ac4:	cb3e                	sw	a5,148(sp)
   11ac6:	57ea                	lw	a5,184(sp)
   11ac8:	c102                	sw	zero,128(sp)
   11aca:	c302                	sw	zero,132(sp)
   11acc:	cd3e                	sw	a5,152(sp)
   11ace:	57fa                	lw	a5,188(sp)
   11ad0:	c502                	sw	zero,136(sp)
   11ad2:	cf3e                	sw	a5,156(sp)
   11ad4:	3ffc07b7          	lui	a5,0x3ffc0
   11ad8:	c73e                	sw	a5,140(sp)
   11ada:	3f9090ef          	jal	ra,1b6d2 <__multf3>
   11ade:	570a                	lw	a4,160(sp)
   11ae0:	569a                	lw	a3,164(sp)
   11ae2:	582a                	lw	a6,168(sp)
   11ae4:	5e3a                	lw	t3,172(sp)
   11ae6:	85ea                	mv	a1,s10
   11ae8:	855e                	mv	a0,s7
   11aea:	d93a                	sw	a4,176(sp)
   11aec:	ccba                	sw	a4,88(sp)
   11aee:	db36                	sw	a3,180(sp)
   11af0:	c8b6                	sw	a3,80(sp)
   11af2:	dd42                	sw	a6,184(sp)
   11af4:	d442                	sw	a6,40(sp)
   11af6:	df72                	sw	t3,188(sp)
   11af8:	d272                	sw	t3,36(sp)
   11afa:	d102                	sw	zero,160(sp)
   11afc:	d302                	sw	zero,164(sp)
   11afe:	d502                	sw	zero,168(sp)
   11b00:	d702                	sw	zero,172(sp)
   11b02:	0b7090ef          	jal	ra,1b3b8 <__eqtf2>
   11b06:	5e12                	lw	t3,36(sp)
   11b08:	5822                	lw	a6,40(sp)
   11b0a:	46c6                	lw	a3,80(sp)
   11b0c:	4766                	lw	a4,88(sp)
   11b0e:	5896                	lw	a7,100(sp)
   11b10:	22050263          	beqz	a0,11d34 <_vfprintf_r+0x1874>
   11b14:	67f9                	lui	a5,0x1e
   11b16:	d4878393          	addi	t2,a5,-696 # 1dd48 <__clzsi2+0x5c>
   11b1a:	fff90c93          	addi	s9,s2,-1
   11b1e:	d8ca                	sw	s2,112(sp)
   11b20:	daa2                	sw	s0,116(sp)
   11b22:	8962                	mv	s2,s8
   11b24:	dcce                	sw	s3,120(sp)
   11b26:	dee2                	sw	s8,124(sp)
   11b28:	d2a6                	sw	s1,100(sp)
   11b2a:	d4c6                	sw	a7,104(sp)
   11b2c:	d6d2                	sw	s4,108(sp)
   11b2e:	c89e                	sw	t2,80(sp)
   11b30:	89ba                	mv	s3,a4
   11b32:	8ab6                	mv	s5,a3
   11b34:	8c42                	mv	s8,a6
   11b36:	8472                	mv	s0,t3
   11b38:	a035                	j	11b64 <_vfprintf_r+0x16a4>
   11b3a:	85ea                	mv	a1,s10
   11b3c:	855e                	mv	a0,s7
   11b3e:	d43e                	sw	a5,40(sp)
   11b40:	d232                	sw	a2,36(sp)
   11b42:	dd32                	sw	a2,184(sp)
   11b44:	df3e                	sw	a5,188(sp)
   11b46:	d926                	sw	s1,176(sp)
   11b48:	db52                	sw	s4,180(sp)
   11b4a:	d102                	sw	zero,160(sp)
   11b4c:	d302                	sw	zero,164(sp)
   11b4e:	d502                	sw	zero,168(sp)
   11b50:	d702                	sw	zero,172(sp)
   11b52:	067090ef          	jal	ra,1b3b8 <__eqtf2>
   11b56:	fffc8593          	addi	a1,s9,-1
   11b5a:	8662                	mv	a2,s8
   11b5c:	87a2                	mv	a5,s0
   11b5e:	48050463          	beqz	a0,11fe6 <_vfprintf_r+0x1b26>
   11b62:	8cae                	mv	s9,a1
   11b64:	5602                	lw	a2,32(sp)
   11b66:	400307b7          	lui	a5,0x40030
   11b6a:	85ea                	mv	a1,s10
   11b6c:	855e                	mv	a0,s7
   11b6e:	cf3e                	sw	a5,156(sp)
   11b70:	d14e                	sw	s3,160(sp)
   11b72:	d356                	sw	s5,164(sp)
   11b74:	d562                	sw	s8,168(sp)
   11b76:	d722                	sw	s0,172(sp)
   11b78:	c902                	sw	zero,144(sp)
   11b7a:	cb02                	sw	zero,148(sp)
   11b7c:	cd02                	sw	zero,152(sp)
   11b7e:	355090ef          	jal	ra,1b6d2 <__multf3>
   11b82:	855e                	mv	a0,s7
   11b84:	1c70b0ef          	jal	ra,1d54a <__fixtfsi>
   11b88:	85aa                	mv	a1,a0
   11b8a:	8daa                	mv	s11,a0
   11b8c:	855e                	mv	a0,s7
   11b8e:	5a4a                	lw	s4,176(sp)
   11b90:	59da                	lw	s3,180(sp)
   11b92:	54ea                	lw	s1,184(sp)
   11b94:	547a                	lw	s0,188(sp)
   11b96:	2d70b0ef          	jal	ra,1d66c <__floatsitf>
   11b9a:	57ca                	lw	a5,176(sp)
   11b9c:	4656                	lw	a2,84(sp)
   11b9e:	5582                	lw	a1,32(sp)
   11ba0:	c13e                	sw	a5,128(sp)
   11ba2:	57da                	lw	a5,180(sp)
   11ba4:	856a                	mv	a0,s10
   11ba6:	c952                	sw	s4,144(sp)
   11ba8:	c33e                	sw	a5,132(sp)
   11baa:	57ea                	lw	a5,184(sp)
   11bac:	cb4e                	sw	s3,148(sp)
   11bae:	cd26                	sw	s1,152(sp)
   11bb0:	c53e                	sw	a5,136(sp)
   11bb2:	57fa                	lw	a5,188(sp)
   11bb4:	cf22                	sw	s0,156(sp)
   11bb6:	c73e                	sw	a5,140(sp)
   11bb8:	7e20a0ef          	jal	ra,1c39a <__subtf3>
   11bbc:	47c6                	lw	a5,80(sp)
   11bbe:	548a                	lw	s1,160(sp)
   11bc0:	5a1a                	lw	s4,164(sp)
   11bc2:	97ee                	add	a5,a5,s11
   11bc4:	0007c703          	lbu	a4,0(a5) # 40030000 <__BSS_END__+0x400101c8>
   11bc8:	562a                	lw	a2,168(sp)
   11bca:	57ba                	lw	a5,172(sp)
   11bcc:	ccca                	sw	s2,88(sp)
   11bce:	00e90023          	sb	a4,0(s2)
   11bd2:	577d                	li	a4,-1
   11bd4:	0905                	addi	s2,s2,1
   11bd6:	89a6                	mv	s3,s1
   11bd8:	8ad2                	mv	s5,s4
   11bda:	8c32                	mv	s8,a2
   11bdc:	843e                	mv	s0,a5
   11bde:	f4ec9ee3          	bne	s9,a4,11b3a <_vfprintf_r+0x167a>
   11be2:	8aca                	mv	s5,s2
   11be4:	8f26                	mv	t5,s1
   11be6:	8ed2                	mv	t4,s4
   11be8:	58a6                	lw	a7,104(sp)
   11bea:	5456                	lw	s0,116(sp)
   11bec:	5946                	lw	s2,112(sp)
   11bee:	43c6                	lw	t2,80(sp)
   11bf0:	59e6                	lw	s3,120(sp)
   11bf2:	5c76                	lw	s8,124(sp)
   11bf4:	5496                	lw	s1,100(sp)
   11bf6:	5a36                	lw	s4,108(sp)
   11bf8:	577d                	li	a4,-1
   11bfa:	3ffe06b7          	lui	a3,0x3ffe0
   11bfe:	85ea                	mv	a1,s10
   11c00:	855e                	mv	a0,s7
   11c02:	d21e                	sw	t2,36(sp)
   11c04:	d046                	sw	a7,32(sp)
   11c06:	d4ba                	sw	a4,104(sp)
   11c08:	d97a                	sw	t5,176(sp)
   11c0a:	d2fa                	sw	t5,100(sp)
   11c0c:	db76                	sw	t4,180(sp)
   11c0e:	caf6                	sw	t4,84(sp)
   11c10:	dd32                	sw	a2,184(sp)
   11c12:	c8b2                	sw	a2,80(sp)
   11c14:	df3e                	sw	a5,188(sp)
   11c16:	d43e                	sw	a5,40(sp)
   11c18:	d102                	sw	zero,160(sp)
   11c1a:	d302                	sw	zero,164(sp)
   11c1c:	d502                	sw	zero,168(sp)
   11c1e:	d736                	sw	a3,172(sp)
   11c20:	083090ef          	jal	ra,1b4a2 <__getf2>
   11c24:	5882                	lw	a7,32(sp)
   11c26:	5392                	lw	t2,36(sp)
   11c28:	32a04e63          	bgtz	a0,11f64 <_vfprintf_r+0x1aa4>
   11c2c:	85ea                	mv	a1,s10
   11c2e:	855e                	mv	a0,s7
   11c30:	788090ef          	jal	ra,1b3b8 <__eqtf2>
   11c34:	5882                	lw	a7,32(sp)
   11c36:	5392                	lw	t2,36(sp)
   11c38:	5726                	lw	a4,104(sp)
   11c3a:	e509                	bnez	a0,11c44 <_vfprintf_r+0x1784>
   11c3c:	001dfd93          	andi	s11,s11,1
   11c40:	320d9263          	bnez	s11,11f64 <_vfprintf_r+0x1aa4>
   11c44:	00170b93          	addi	s7,a4,1
   11c48:	9bd6                	add	s7,s7,s5
   11c4a:	03000693          	li	a3,48
   11c4e:	34074a63          	bltz	a4,11fa2 <_vfprintf_r+0x1ae2>
   11c52:	0a85                	addi	s5,s5,1
   11c54:	feda8fa3          	sb	a3,-1(s5)
   11c58:	ff5b9de3          	bne	s7,s5,11c52 <_vfprintf_r+0x1792>
   11c5c:	418b87b3          	sub	a5,s7,s8
   11c60:	d23e                	sw	a5,36(sp)
   11c62:	fdf8fa93          	andi	s5,a7,-33
   11c66:	b1ad                	j	118d0 <_vfprintf_r+0x1410>
   11c68:	85ea                	mv	a1,s10
   11c6a:	855e                	mv	a0,s7
   11c6c:	c8c6                	sw	a7,80(sp)
   11c6e:	d97a                	sw	t5,176(sp)
   11c70:	d47a                	sw	t5,40(sp)
   11c72:	db76                	sw	t4,180(sp)
   11c74:	d276                	sw	t4,36(sp)
   11c76:	dd72                	sw	t3,184(sp)
   11c78:	d072                	sw	t3,32(sp)
   11c7a:	cab6                	sw	a3,84(sp)
   11c7c:	df6e                	sw	s11,188(sp)
   11c7e:	d102                	sw	zero,160(sp)
   11c80:	d302                	sw	zero,164(sp)
   11c82:	d502                	sw	zero,168(sp)
   11c84:	d702                	sw	zero,172(sp)
   11c86:	732090ef          	jal	ra,1b3b8 <__eqtf2>
   11c8a:	5e02                	lw	t3,32(sp)
   11c8c:	5e92                	lw	t4,36(sp)
   11c8e:	5f22                	lw	t5,40(sp)
   11c90:	48c6                	lw	a7,80(sp)
   11c92:	be050de3          	beqz	a0,1188c <_vfprintf_r+0x13cc>
   11c96:	46d6                	lw	a3,84(sp)
   11c98:	4605                	li	a2,1
   11c9a:	40d606b3          	sub	a3,a2,a3
   11c9e:	c7b6                	sw	a3,204(sp)
   11ca0:	b6fd                	j	1188e <_vfprintf_r+0x13ce>
   11ca2:	00190693          	addi	a3,s2,1
   11ca6:	4609                	li	a2,2
   11ca8:	b649                	j	1182a <_vfprintf_r+0x136a>
   11caa:	86ca                	mv	a3,s2
   11cac:	460d                	li	a2,3
   11cae:	beb5                	j	1182a <_vfprintf_r+0x136a>
   11cb0:	0b010b93          	addi	s7,sp,176
   11cb4:	855e                	mv	a0,s7
   11cb6:	d2c6                	sw	a7,100(sp)
   11cb8:	d97a                	sw	t5,176(sp)
   11cba:	db76                	sw	t4,180(sp)
   11cbc:	dd72                	sw	t3,184(sp)
   11cbe:	df6e                	sw	s11,188(sp)
   11cc0:	4090b0ef          	jal	ra,1d8c8 <__trunctfdf2>
   11cc4:	01e8                	addi	a0,sp,204
   11cc6:	563040ef          	jal	ra,16a28 <frexp>
   11cca:	855e                	mv	a0,s7
   11ccc:	2710b0ef          	jal	ra,1d73c <__extenddftf2>
   11cd0:	091c                	addi	a5,sp,144
   11cd2:	85be                	mv	a1,a5
   11cd4:	d03e                	sw	a5,32(sp)
   11cd6:	57ca                	lw	a5,176(sp)
   11cd8:	0a010d13          	addi	s10,sp,160
   11cdc:	0110                	addi	a2,sp,128
   11cde:	c93e                	sw	a5,144(sp)
   11ce0:	57da                	lw	a5,180(sp)
   11ce2:	856a                	mv	a0,s10
   11ce4:	cab2                	sw	a2,84(sp)
   11ce6:	cb3e                	sw	a5,148(sp)
   11ce8:	57ea                	lw	a5,184(sp)
   11cea:	c102                	sw	zero,128(sp)
   11cec:	c302                	sw	zero,132(sp)
   11cee:	cd3e                	sw	a5,152(sp)
   11cf0:	57fa                	lw	a5,188(sp)
   11cf2:	c502                	sw	zero,136(sp)
   11cf4:	cf3e                	sw	a5,156(sp)
   11cf6:	3ffc07b7          	lui	a5,0x3ffc0
   11cfa:	c73e                	sw	a5,140(sp)
   11cfc:	1d7090ef          	jal	ra,1b6d2 <__multf3>
   11d00:	570a                	lw	a4,160(sp)
   11d02:	569a                	lw	a3,164(sp)
   11d04:	582a                	lw	a6,168(sp)
   11d06:	5e3a                	lw	t3,172(sp)
   11d08:	85ea                	mv	a1,s10
   11d0a:	855e                	mv	a0,s7
   11d0c:	d93a                	sw	a4,176(sp)
   11d0e:	ccba                	sw	a4,88(sp)
   11d10:	db36                	sw	a3,180(sp)
   11d12:	c8b6                	sw	a3,80(sp)
   11d14:	dd42                	sw	a6,184(sp)
   11d16:	d442                	sw	a6,40(sp)
   11d18:	df72                	sw	t3,188(sp)
   11d1a:	d272                	sw	t3,36(sp)
   11d1c:	d102                	sw	zero,160(sp)
   11d1e:	d302                	sw	zero,164(sp)
   11d20:	d502                	sw	zero,168(sp)
   11d22:	d702                	sw	zero,172(sp)
   11d24:	694090ef          	jal	ra,1b3b8 <__eqtf2>
   11d28:	5e12                	lw	t3,36(sp)
   11d2a:	5822                	lw	a6,40(sp)
   11d2c:	46c6                	lw	a3,80(sp)
   11d2e:	4766                	lw	a4,88(sp)
   11d30:	5896                	lw	a7,100(sp)
   11d32:	e519                	bnez	a0,11d40 <_vfprintf_r+0x1880>
   11d34:	4785                	li	a5,1
   11d36:	c7be                	sw	a5,204(sp)
   11d38:	06100793          	li	a5,97
   11d3c:	dcf88ce3          	beq	a7,a5,11b14 <_vfprintf_r+0x1654>
   11d40:	67f9                	lui	a5,0x1e
   11d42:	d5c78393          	addi	t2,a5,-676 # 1dd5c <__clzsi2+0x70>
   11d46:	bbd1                	j	11b1a <_vfprintf_r+0x165a>
   11d48:	57b2                	lw	a5,44(sp)
   11d4a:	8b85                	andi	a5,a5,1
   11d4c:	1e079163          	bnez	a5,11f2e <_vfprintf_r+0x1a6e>
   11d50:	4bfe                	lw	s7,220(sp)
   11d52:	46be                	lw	a3,204(sp)
   11d54:	418b87b3          	sub	a5,s7,s8
   11d58:	d23e                	sw	a5,36(sp)
   11d5a:	57f5                	li	a5,-3
   11d5c:	d036                	sw	a3,32(sp)
   11d5e:	00f6c463          	blt	a3,a5,11d66 <_vfprintf_r+0x18a6>
   11d62:	02d95263          	bge	s2,a3,11d86 <_vfprintf_r+0x18c6>
   11d66:	fff68793          	addi	a5,a3,-1 # 3ffdffff <__BSS_END__+0x3ffc01c7>
   11d6a:	18f9                	addi	a7,a7,-2
   11d6c:	c7be                	sw	a5,204(sp)
   11d6e:	0ff8f713          	zext.b	a4,a7
   11d72:	4601                	li	a2,0
   11d74:	b671                	j	11900 <_vfprintf_r+0x1440>
   11d76:	0c714703          	lbu	a4,199(sp)
   11d7a:	4901                	li	s2,0
   11d7c:	c319                	beqz	a4,11d82 <_vfprintf_r+0x18c2>
   11d7e:	ab3fe06f          	j	10830 <_vfprintf_r+0x370>
   11d82:	8c3fe06f          	j	10644 <_vfprintf_r+0x184>
   11d86:	5792                	lw	a5,36(sp)
   11d88:	0ef6c063          	blt	a3,a5,11e68 <_vfprintf_r+0x19a8>
   11d8c:	57b2                	lw	a5,44(sp)
   11d8e:	8d36                	mv	s10,a3
   11d90:	8b85                	andi	a5,a5,1
   11d92:	c781                	beqz	a5,11d9a <_vfprintf_r+0x18da>
   11d94:	57d2                	lw	a5,52(sp)
   11d96:	00f68d33          	add	s10,a3,a5
   11d9a:	57b2                	lw	a5,44(sp)
   11d9c:	4007f793          	andi	a5,a5,1024
   11da0:	c399                	beqz	a5,11da6 <_vfprintf_r+0x18e6>
   11da2:	24d04f63          	bgtz	a3,12000 <_vfprintf_r+0x1b40>
   11da6:	fffd4693          	not	a3,s10
   11daa:	4bf6                	lw	s7,92(sp)
   11dac:	86fd                	srai	a3,a3,0x1f
   11dae:	00dd7cb3          	and	s9,s10,a3
   11db2:	06700893          	li	a7,103
   11db6:	d602                	sw	zero,44(sp)
   11db8:	d402                	sw	zero,40(sp)
   11dba:	b6f5                	j	119a6 <_vfprintf_r+0x14e6>
   11dbc:	ca02                	sw	zero,20(sp)
   11dbe:	800007b7          	lui	a5,0x80000
   11dc2:	01b7cdb3          	xor	s11,a5,s11
   11dc6:	02d00793          	li	a5,45
   11dca:	d0be                	sw	a5,96(sp)
   11dcc:	b95d                	j	11a82 <_vfprintf_r+0x15c2>
   11dce:	11d0                	addi	a2,sp,228
   11dd0:	85a6                	mv	a1,s1
   11dd2:	854e                	mv	a0,s3
   11dd4:	4df060ef          	jal	ra,18ab2 <__sprint_r>
   11dd8:	92051863          	bnez	a0,10f08 <_vfprintf_r+0xa48>
   11ddc:	000bc683          	lbu	a3,0(s7)
   11de0:	573e                	lw	a4,236(sp)
   11de2:	865a                	mv	a2,s6
   11de4:	9c36                	add	s8,s8,a3
   11de6:	b8d5                	j	116da <_vfprintf_r+0x121a>
   11de8:	4525                	li	a0,9
   11dea:	e5956e63          	bltu	a0,s9,11446 <_vfprintf_r+0xf86>
   11dee:	ec0ff06f          	j	114ae <_vfprintf_r+0xfee>
   11df2:	07800713          	li	a4,120
   11df6:	b9a1                	j	11a4e <_vfprintf_r+0x158e>
   11df8:	02d00713          	li	a4,45
   11dfc:	0ce103a3          	sb	a4,199(sp)
   11e00:	f64ff06f          	j	11564 <_vfprintf_r+0x10a4>
   11e04:	45a2                	lw	a1,8(sp)
   11e06:	11d0                	addi	a2,sp,228
   11e08:	854e                	mv	a0,s3
   11e0a:	4a9060ef          	jal	ra,18ab2 <__sprint_r>
   11e0e:	8e051d63          	bnez	a0,10f08 <_vfprintf_r+0xa48>
   11e12:	463e                	lw	a2,204(sp)
   11e14:	573e                	lw	a4,236(sp)
   11e16:	845a                	mv	s0,s6
   11e18:	aa8ff06f          	j	110c0 <_vfprintf_r+0xc00>
   11e1c:	0c714703          	lbu	a4,199(sp)
   11e20:	cc56                	sw	s5,24(sp)
   11e22:	d602                	sw	zero,44(sp)
   11e24:	d402                	sw	zero,40(sp)
   11e26:	d002                	sw	zero,32(sp)
   11e28:	8cca                	mv	s9,s2
   11e2a:	8d4a                	mv	s10,s2
   11e2c:	4901                	li	s2,0
   11e2e:	c319                	beqz	a4,11e34 <_vfprintf_r+0x1974>
   11e30:	a01fe06f          	j	10830 <_vfprintf_r+0x370>
   11e34:	811fe06f          	j	10644 <_vfprintf_r+0x184>
   11e38:	6ff9                	lui	t6,0x1e
   11e3a:	d40f8c13          	addi	s8,t6,-704 # 1dd40 <__clzsi2+0x54>
   11e3e:	f34ff06f          	j	11572 <_vfprintf_r+0x10b2>
   11e42:	45a2                	lw	a1,8(sp)
   11e44:	11d0                	addi	a2,sp,228
   11e46:	854e                	mv	a0,s3
   11e48:	46b060ef          	jal	ra,18ab2 <__sprint_r>
   11e4c:	c119                	beqz	a0,11e52 <_vfprintf_r+0x1992>
   11e4e:	8baff06f          	j	10f08 <_vfprintf_r+0xa48>
   11e52:	463e                	lw	a2,204(sp)
   11e54:	5792                	lw	a5,36(sp)
   11e56:	573e                	lw	a4,236(sp)
   11e58:	845a                	mv	s0,s6
   11e5a:	40c78633          	sub	a2,a5,a2
   11e5e:	a92ff06f          	j	110f0 <_vfprintf_r+0xc30>
   11e62:	8dde                	mv	s11,s7
   11e64:	d31fe06f          	j	10b94 <_vfprintf_r+0x6d4>
   11e68:	5792                	lw	a5,36(sp)
   11e6a:	5752                	lw	a4,52(sp)
   11e6c:	06700893          	li	a7,103
   11e70:	00e78d33          	add	s10,a5,a4
   11e74:	5782                	lw	a5,32(sp)
   11e76:	1ef05163          	blez	a5,12058 <_vfprintf_r+0x1b98>
   11e7a:	57b2                	lw	a5,44(sp)
   11e7c:	4007f793          	andi	a5,a5,1024
   11e80:	18079263          	bnez	a5,12004 <_vfprintf_r+0x1b44>
   11e84:	fffd4693          	not	a3,s10
   11e88:	86fd                	srai	a3,a3,0x1f
   11e8a:	4bf6                	lw	s7,92(sp)
   11e8c:	00dd7cb3          	and	s9,s10,a3
   11e90:	b71d                	j	11db6 <_vfprintf_r+0x18f6>
   11e92:	6879                	lui	a6,0x1e
   11e94:	55c1                	li	a1,-16
   11e96:	40a00933          	neg	s2,a0
   11e9a:	f8080a93          	addi	s5,a6,-128 # 1df80 <zeroes.0>
   11e9e:	4d41                	li	s10,16
   11ea0:	4d9d                	li	s11,7
   11ea2:	00b54663          	blt	a0,a1,11eae <_vfprintf_r+0x19ee>
   11ea6:	a8a1                	j	11efe <_vfprintf_r+0x1a3e>
   11ea8:	1941                	addi	s2,s2,-16
   11eaa:	052d5a63          	bge	s10,s2,11efe <_vfprintf_r+0x1a3e>
   11eae:	0741                	addi	a4,a4,16
   11eb0:	0605                	addi	a2,a2,1
   11eb2:	01542023          	sw	s5,0(s0)
   11eb6:	01a42223          	sw	s10,4(s0)
   11eba:	d7ba                	sw	a4,236(sp)
   11ebc:	d5b2                	sw	a2,232(sp)
   11ebe:	0421                	addi	s0,s0,8
   11ec0:	fecdd4e3          	bge	s11,a2,11ea8 <_vfprintf_r+0x19e8>
   11ec4:	45a2                	lw	a1,8(sp)
   11ec6:	11d0                	addi	a2,sp,228
   11ec8:	854e                	mv	a0,s3
   11eca:	3e9060ef          	jal	ra,18ab2 <__sprint_r>
   11ece:	c119                	beqz	a0,11ed4 <_vfprintf_r+0x1a14>
   11ed0:	838ff06f          	j	10f08 <_vfprintf_r+0xa48>
   11ed4:	573e                	lw	a4,236(sp)
   11ed6:	562e                	lw	a2,232(sp)
   11ed8:	845a                	mv	s0,s6
   11eda:	b7f9                	j	11ea8 <_vfprintf_r+0x19e8>
   11edc:	57fd                	li	a5,-1
   11ede:	c83e                	sw	a5,16(sp)
   11ee0:	849fe06f          	j	10728 <_vfprintf_r+0x268>
   11ee4:	57b2                	lw	a5,44(sp)
   11ee6:	5702                	lw	a4,32(sp)
   11ee8:	8b85                	andi	a5,a5,1
   11eea:	0127e7b3          	or	a5,a5,s2
   11eee:	18e05e63          	blez	a4,1208a <_vfprintf_r+0x1bca>
   11ef2:	16079e63          	bnez	a5,1206e <_vfprintf_r+0x1bae>
   11ef6:	5d02                	lw	s10,32(sp)
   11ef8:	06600893          	li	a7,102
   11efc:	bfbd                	j	11e7a <_vfprintf_r+0x19ba>
   11efe:	974a                	add	a4,a4,s2
   11f00:	0605                	addi	a2,a2,1
   11f02:	01542023          	sw	s5,0(s0)
   11f06:	01242223          	sw	s2,4(s0)
   11f0a:	d7ba                	sw	a4,236(sp)
   11f0c:	d5b2                	sw	a2,232(sp)
   11f0e:	459d                	li	a1,7
   11f10:	dec5db63          	bge	a1,a2,11506 <_vfprintf_r+0x1046>
   11f14:	45a2                	lw	a1,8(sp)
   11f16:	11d0                	addi	a2,sp,228
   11f18:	854e                	mv	a0,s3
   11f1a:	399060ef          	jal	ra,18ab2 <__sprint_r>
   11f1e:	c119                	beqz	a0,11f24 <_vfprintf_r+0x1a64>
   11f20:	fe9fe06f          	j	10f08 <_vfprintf_r+0xa48>
   11f24:	573e                	lw	a4,236(sp)
   11f26:	562e                	lw	a2,232(sp)
   11f28:	845a                	mv	s0,s6
   11f2a:	ea0ff06f          	j	115ca <_vfprintf_r+0x110a>
   11f2e:	00dc0cb3          	add	s9,s8,a3
   11f32:	04700a93          	li	s5,71
   11f36:	0a010d13          	addi	s10,sp,160
   11f3a:	ba99                	j	11890 <_vfprintf_r+0x13d0>
   11f3c:	0d610713          	addi	a4,sp,214
   11f40:	e619                	bnez	a2,11f4e <_vfprintf_r+0x1a8e>
   11f42:	03000713          	li	a4,48
   11f46:	0ce10b23          	sb	a4,214(sp)
   11f4a:	0d710713          	addi	a4,sp,215
   11f4e:	1b14                	addi	a3,sp,432
   11f50:	03078793          	addi	a5,a5,48 # 80000030 <__BSS_END__+0x7ffe01f8>
   11f54:	40d706b3          	sub	a3,a4,a3
   11f58:	00f70023          	sb	a5,0(a4)
   11f5c:	0dd68793          	addi	a5,a3,221
   11f60:	c2be                	sw	a5,68(sp)
   11f62:	bc21                	j	1197a <_vfprintf_r+0x14ba>
   11f64:	47e6                	lw	a5,88(sp)
   11f66:	00f3c603          	lbu	a2,15(t2)
   11f6a:	8756                	mv	a4,s5
   11f6c:	cfbe                	sw	a5,220(sp)
   11f6e:	fffac683          	lbu	a3,-1(s5)
   11f72:	00c69e63          	bne	a3,a2,11f8e <_vfprintf_r+0x1ace>
   11f76:	03000593          	li	a1,48
   11f7a:	feb70fa3          	sb	a1,-1(a4)
   11f7e:	477e                	lw	a4,220(sp)
   11f80:	fff70793          	addi	a5,a4,-1
   11f84:	cfbe                	sw	a5,220(sp)
   11f86:	fff74683          	lbu	a3,-1(a4)
   11f8a:	fed608e3          	beq	a2,a3,11f7a <_vfprintf_r+0x1aba>
   11f8e:	00168613          	addi	a2,a3,1
   11f92:	03900593          	li	a1,57
   11f96:	0ff67613          	zext.b	a2,a2
   11f9a:	00b68663          	beq	a3,a1,11fa6 <_vfprintf_r+0x1ae6>
   11f9e:	fec70fa3          	sb	a2,-1(a4)
   11fa2:	8bd6                	mv	s7,s5
   11fa4:	b965                	j	11c5c <_vfprintf_r+0x179c>
   11fa6:	00a3c603          	lbu	a2,10(t2)
   11faa:	fec70fa3          	sb	a2,-1(a4)
   11fae:	bfd5                	j	11fa2 <_vfprintf_r+0x1ae2>
   11fb0:	00190593          	addi	a1,s2,1
   11fb4:	854e                	mv	a0,s3
   11fb6:	ca46                	sw	a7,20(sp)
   11fb8:	210030ef          	jal	ra,151c8 <_malloc_r>
   11fbc:	48d2                	lw	a7,20(sp)
   11fbe:	8c2a                	mv	s8,a0
   11fc0:	10050763          	beqz	a0,120ce <_vfprintf_r+0x1c0e>
   11fc4:	ca2a                	sw	a0,20(sp)
   11fc6:	b465                	j	11a6e <_vfprintf_r+0x15ae>
   11fc8:	57b2                	lw	a5,44(sp)
   11fca:	8b85                	andi	a5,a5,1
   11fcc:	9c0780e3          	beqz	a5,1198c <_vfprintf_r+0x14cc>
   11fd0:	ba65                	j	11988 <_vfprintf_r+0x14c8>
   11fd2:	00090463          	beqz	s2,11fda <_vfprintf_r+0x1b1a>
   11fd6:	963fe06f          	j	10938 <_vfprintf_r+0x478>
   11fda:	4905                	li	s2,1
   11fdc:	95dfe06f          	j	10938 <_vfprintf_r+0x478>
   11fe0:	4919                	li	s2,6
   11fe2:	957fe06f          	j	10938 <_vfprintf_r+0x478>
   11fe6:	8aca                	mv	s5,s2
   11fe8:	8f26                	mv	t5,s1
   11fea:	8ed2                	mv	t4,s4
   11fec:	58a6                	lw	a7,104(sp)
   11fee:	5456                	lw	s0,116(sp)
   11ff0:	5946                	lw	s2,112(sp)
   11ff2:	43c6                	lw	t2,80(sp)
   11ff4:	59e6                	lw	s3,120(sp)
   11ff6:	5c76                	lw	s8,124(sp)
   11ff8:	5496                	lw	s1,100(sp)
   11ffa:	5a36                	lw	s4,108(sp)
   11ffc:	8766                	mv	a4,s9
   11ffe:	bef5                	j	11bfa <_vfprintf_r+0x173a>
   12000:	06700893          	li	a7,103
   12004:	4606                	lw	a2,64(sp)
   12006:	0ff00713          	li	a4,255
   1200a:	00064783          	lbu	a5,0(a2)
   1200e:	0ce78963          	beq	a5,a4,120e0 <_vfprintf_r+0x1c20>
   12012:	5682                	lw	a3,32(sp)
   12014:	4501                	li	a0,0
   12016:	4581                	li	a1,0
   12018:	00d7da63          	bge	a5,a3,1202c <_vfprintf_r+0x1b6c>
   1201c:	8e9d                	sub	a3,a3,a5
   1201e:	00164783          	lbu	a5,1(a2)
   12022:	c79d                	beqz	a5,12050 <_vfprintf_r+0x1b90>
   12024:	0585                	addi	a1,a1,1
   12026:	0605                	addi	a2,a2,1
   12028:	fee798e3          	bne	a5,a4,12018 <_vfprintf_r+0x1b58>
   1202c:	c0b2                	sw	a2,64(sp)
   1202e:	d036                	sw	a3,32(sp)
   12030:	d42e                	sw	a1,40(sp)
   12032:	d62a                	sw	a0,44(sp)
   12034:	57b2                	lw	a5,44(sp)
   12036:	5722                	lw	a4,40(sp)
   12038:	4bf6                	lw	s7,92(sp)
   1203a:	973e                	add	a4,a4,a5
   1203c:	47b6                	lw	a5,76(sp)
   1203e:	02f70733          	mul	a4,a4,a5
   12042:	9d3a                	add	s10,s10,a4
   12044:	fffd4693          	not	a3,s10
   12048:	86fd                	srai	a3,a3,0x1f
   1204a:	00dd7cb3          	and	s9,s10,a3
   1204e:	baa1                	j	119a6 <_vfprintf_r+0x14e6>
   12050:	00064783          	lbu	a5,0(a2)
   12054:	0505                	addi	a0,a0,1
   12056:	bfc9                	j	12028 <_vfprintf_r+0x1b68>
   12058:	40fd0e33          	sub	t3,s10,a5
   1205c:	001e0d13          	addi	s10,t3,1
   12060:	fffd4693          	not	a3,s10
   12064:	86fd                	srai	a3,a3,0x1f
   12066:	4bf6                	lw	s7,92(sp)
   12068:	00dd7cb3          	and	s9,s10,a3
   1206c:	b3a9                	j	11db6 <_vfprintf_r+0x18f6>
   1206e:	57d2                	lw	a5,52(sp)
   12070:	06600893          	li	a7,102
   12074:	00f70e33          	add	t3,a4,a5
   12078:	012e0d33          	add	s10,t3,s2
   1207c:	bbfd                	j	11e7a <_vfprintf_r+0x19ba>
   1207e:	07000713          	li	a4,112
   12082:	b8b5                	j	118fe <_vfprintf_r+0x143e>
   12084:	4789                	li	a5,2
   12086:	c2be                	sw	a5,68(sp)
   12088:	b8cd                	j	1197a <_vfprintf_r+0x14ba>
   1208a:	e799                	bnez	a5,12098 <_vfprintf_r+0x1bd8>
   1208c:	4bf6                	lw	s7,92(sp)
   1208e:	4c85                	li	s9,1
   12090:	06600893          	li	a7,102
   12094:	4d05                	li	s10,1
   12096:	b305                	j	11db6 <_vfprintf_r+0x18f6>
   12098:	57d2                	lw	a5,52(sp)
   1209a:	4bf6                	lw	s7,92(sp)
   1209c:	06600893          	li	a7,102
   120a0:	00178e13          	addi	t3,a5,1
   120a4:	012e0d33          	add	s10,t3,s2
   120a8:	fffd4693          	not	a3,s10
   120ac:	86fd                	srai	a3,a3,0x1f
   120ae:	00dd7cb3          	and	s9,s10,a3
   120b2:	b311                	j	11db6 <_vfprintf_r+0x18f6>
   120b4:	47e2                	lw	a5,24(sp)
   120b6:	0007a903          	lw	s2,0(a5)
   120ba:	0791                	addi	a5,a5,4
   120bc:	00095363          	bgez	s2,120c2 <_vfprintf_r+0x1c02>
   120c0:	597d                	li	s2,-1
   120c2:	0014c883          	lbu	a7,1(s1)
   120c6:	cc3e                	sw	a5,24(sp)
   120c8:	84ba                	mv	s1,a4
   120ca:	d20fe06f          	j	105ea <_vfprintf_r+0x12a>
   120ce:	4722                	lw	a4,8(sp)
   120d0:	00c75783          	lhu	a5,12(a4)
   120d4:	0407e793          	ori	a5,a5,64
   120d8:	00f71623          	sh	a5,12(a4)
   120dc:	e3cfe06f          	j	10718 <_vfprintf_r+0x258>
   120e0:	d602                	sw	zero,44(sp)
   120e2:	d402                	sw	zero,40(sp)
   120e4:	bf81                	j	12034 <_vfprintf_r+0x1b74>

000120e6 <vfprintf>:
   120e6:	87aa                	mv	a5,a0
   120e8:	5c01a503          	lw	a0,1472(gp) # 1fdd0 <_impure_ptr>
   120ec:	86b2                	mv	a3,a2
   120ee:	862e                	mv	a2,a1
   120f0:	85be                	mv	a1,a5
   120f2:	bcefe06f          	j	104c0 <_vfprintf_r>

000120f6 <__sbprintf>:
   120f6:	00c59783          	lh	a5,12(a1)
   120fa:	00e5d703          	lhu	a4,14(a1)
   120fe:	0645a303          	lw	t1,100(a1)
   12102:	9bf5                	andi	a5,a5,-3
   12104:	07c2                	slli	a5,a5,0x10
   12106:	01c5a883          	lw	a7,28(a1)
   1210a:	0245a803          	lw	a6,36(a1)
   1210e:	0742                	slli	a4,a4,0x10
   12110:	83c1                	srli	a5,a5,0x10
   12112:	b8010113          	addi	sp,sp,-1152
   12116:	8fd9                	or	a5,a5,a4
   12118:	46812c23          	sw	s0,1144(sp)
   1211c:	40000713          	li	a4,1024
   12120:	ca3e                	sw	a5,20(sp)
   12122:	842e                	mv	s0,a1
   12124:	189c                	addi	a5,sp,112
   12126:	002c                	addi	a1,sp,8
   12128:	46912a23          	sw	s1,1140(sp)
   1212c:	47212823          	sw	s2,1136(sp)
   12130:	46112e23          	sw	ra,1148(sp)
   12134:	892a                	mv	s2,a0
   12136:	d69a                	sw	t1,108(sp)
   12138:	d246                	sw	a7,36(sp)
   1213a:	d642                	sw	a6,44(sp)
   1213c:	c43e                	sw	a5,8(sp)
   1213e:	cc3e                	sw	a5,24(sp)
   12140:	c83a                	sw	a4,16(sp)
   12142:	ce3a                	sw	a4,28(sp)
   12144:	d002                	sw	zero,32(sp)
   12146:	b7afe0ef          	jal	ra,104c0 <_vfprintf_r>
   1214a:	84aa                	mv	s1,a0
   1214c:	02055963          	bgez	a0,1217e <__sbprintf+0x88>
   12150:	01415783          	lhu	a5,20(sp)
   12154:	0407f793          	andi	a5,a5,64
   12158:	c799                	beqz	a5,12166 <__sbprintf+0x70>
   1215a:	00c45783          	lhu	a5,12(s0)
   1215e:	0407e793          	ori	a5,a5,64
   12162:	00f41623          	sh	a5,12(s0)
   12166:	47c12083          	lw	ra,1148(sp)
   1216a:	47812403          	lw	s0,1144(sp)
   1216e:	47012903          	lw	s2,1136(sp)
   12172:	8526                	mv	a0,s1
   12174:	47412483          	lw	s1,1140(sp)
   12178:	48010113          	addi	sp,sp,1152
   1217c:	8082                	ret
   1217e:	002c                	addi	a1,sp,8
   12180:	854a                	mv	a0,s2
   12182:	2e39                	jal	124a0 <_fflush_r>
   12184:	d571                	beqz	a0,12150 <__sbprintf+0x5a>
   12186:	54fd                	li	s1,-1
   12188:	b7e1                	j	12150 <__sbprintf+0x5a>

0001218a <__swsetup_r>:
   1218a:	5c01a783          	lw	a5,1472(gp) # 1fdd0 <_impure_ptr>
   1218e:	1141                	addi	sp,sp,-16
   12190:	c422                	sw	s0,8(sp)
   12192:	c226                	sw	s1,4(sp)
   12194:	c606                	sw	ra,12(sp)
   12196:	84aa                	mv	s1,a0
   12198:	842e                	mv	s0,a1
   1219a:	c399                	beqz	a5,121a0 <__swsetup_r+0x16>
   1219c:	5f98                	lw	a4,56(a5)
   1219e:	cb29                	beqz	a4,121f0 <__swsetup_r+0x66>
   121a0:	00c41783          	lh	a5,12(s0)
   121a4:	0087f713          	andi	a4,a5,8
   121a8:	cb39                	beqz	a4,121fe <__swsetup_r+0x74>
   121aa:	4818                	lw	a4,16(s0)
   121ac:	c72d                	beqz	a4,12216 <__swsetup_r+0x8c>
   121ae:	0017f693          	andi	a3,a5,1
   121b2:	ce91                	beqz	a3,121ce <__swsetup_r+0x44>
   121b4:	4854                	lw	a3,20(s0)
   121b6:	00042423          	sw	zero,8(s0)
   121ba:	4501                	li	a0,0
   121bc:	40d006b3          	neg	a3,a3
   121c0:	cc14                	sw	a3,24(s0)
   121c2:	cf11                	beqz	a4,121de <__swsetup_r+0x54>
   121c4:	40b2                	lw	ra,12(sp)
   121c6:	4422                	lw	s0,8(sp)
   121c8:	4492                	lw	s1,4(sp)
   121ca:	0141                	addi	sp,sp,16
   121cc:	8082                	ret
   121ce:	0027f693          	andi	a3,a5,2
   121d2:	4601                	li	a2,0
   121d4:	e291                	bnez	a3,121d8 <__swsetup_r+0x4e>
   121d6:	4850                	lw	a2,20(s0)
   121d8:	c410                	sw	a2,8(s0)
   121da:	4501                	li	a0,0
   121dc:	f765                	bnez	a4,121c4 <__swsetup_r+0x3a>
   121de:	0807f713          	andi	a4,a5,128
   121e2:	d36d                	beqz	a4,121c4 <__swsetup_r+0x3a>
   121e4:	0407e793          	ori	a5,a5,64
   121e8:	00f41623          	sh	a5,12(s0)
   121ec:	557d                	li	a0,-1
   121ee:	bfd9                	j	121c4 <__swsetup_r+0x3a>
   121f0:	853e                	mv	a0,a5
   121f2:	2b41                	jal	12782 <__sinit>
   121f4:	00c41783          	lh	a5,12(s0)
   121f8:	0087f713          	andi	a4,a5,8
   121fc:	f75d                	bnez	a4,121aa <__swsetup_r+0x20>
   121fe:	0107f713          	andi	a4,a5,16
   12202:	cb39                	beqz	a4,12258 <__swsetup_r+0xce>
   12204:	0047f713          	andi	a4,a5,4
   12208:	e70d                	bnez	a4,12232 <__swsetup_r+0xa8>
   1220a:	4818                	lw	a4,16(s0)
   1220c:	0087e793          	ori	a5,a5,8
   12210:	00f41623          	sh	a5,12(s0)
   12214:	ff49                	bnez	a4,121ae <__swsetup_r+0x24>
   12216:	2807f693          	andi	a3,a5,640
   1221a:	20000613          	li	a2,512
   1221e:	f8c688e3          	beq	a3,a2,121ae <__swsetup_r+0x24>
   12222:	85a2                	mv	a1,s0
   12224:	8526                	mv	a0,s1
   12226:	611020ef          	jal	ra,15036 <__smakebuf_r>
   1222a:	00c41783          	lh	a5,12(s0)
   1222e:	4818                	lw	a4,16(s0)
   12230:	bfbd                	j	121ae <__swsetup_r+0x24>
   12232:	580c                	lw	a1,48(s0)
   12234:	c999                	beqz	a1,1224a <__swsetup_r+0xc0>
   12236:	04040713          	addi	a4,s0,64
   1223a:	00e58663          	beq	a1,a4,12246 <__swsetup_r+0xbc>
   1223e:	8526                	mv	a0,s1
   12240:	25ad                	jal	128aa <_free_r>
   12242:	00c41783          	lh	a5,12(s0)
   12246:	02042823          	sw	zero,48(s0)
   1224a:	4818                	lw	a4,16(s0)
   1224c:	fdb7f793          	andi	a5,a5,-37
   12250:	00042223          	sw	zero,4(s0)
   12254:	c018                	sw	a4,0(s0)
   12256:	bf5d                	j	1220c <__swsetup_r+0x82>
   12258:	4725                	li	a4,9
   1225a:	c098                	sw	a4,0(s1)
   1225c:	0407e793          	ori	a5,a5,64
   12260:	b761                	j	121e8 <__swsetup_r+0x5e>

00012262 <__call_exitprocs>:
   12262:	7179                	addi	sp,sp,-48
   12264:	cc52                	sw	s4,24(sp)
   12266:	5b81aa03          	lw	s4,1464(gp) # 1fdc8 <_global_impure_ptr>
   1226a:	d04a                	sw	s2,32(sp)
   1226c:	d606                	sw	ra,44(sp)
   1226e:	148a2903          	lw	s2,328(s4)
   12272:	d422                	sw	s0,40(sp)
   12274:	d226                	sw	s1,36(sp)
   12276:	ce4e                	sw	s3,28(sp)
   12278:	ca56                	sw	s5,20(sp)
   1227a:	c85a                	sw	s6,16(sp)
   1227c:	c65e                	sw	s7,12(sp)
   1227e:	c462                	sw	s8,8(sp)
   12280:	02090863          	beqz	s2,122b0 <__call_exitprocs+0x4e>
   12284:	8b2a                	mv	s6,a0
   12286:	8bae                	mv	s7,a1
   12288:	4a85                	li	s5,1
   1228a:	59fd                	li	s3,-1
   1228c:	00492483          	lw	s1,4(s2)
   12290:	fff48413          	addi	s0,s1,-1
   12294:	00044e63          	bltz	s0,122b0 <__call_exitprocs+0x4e>
   12298:	048a                	slli	s1,s1,0x2
   1229a:	94ca                	add	s1,s1,s2
   1229c:	020b8663          	beqz	s7,122c8 <__call_exitprocs+0x66>
   122a0:	1044a783          	lw	a5,260(s1)
   122a4:	03778263          	beq	a5,s7,122c8 <__call_exitprocs+0x66>
   122a8:	147d                	addi	s0,s0,-1
   122aa:	14f1                	addi	s1,s1,-4
   122ac:	ff3418e3          	bne	s0,s3,1229c <__call_exitprocs+0x3a>
   122b0:	50b2                	lw	ra,44(sp)
   122b2:	5422                	lw	s0,40(sp)
   122b4:	5492                	lw	s1,36(sp)
   122b6:	5902                	lw	s2,32(sp)
   122b8:	49f2                	lw	s3,28(sp)
   122ba:	4a62                	lw	s4,24(sp)
   122bc:	4ad2                	lw	s5,20(sp)
   122be:	4b42                	lw	s6,16(sp)
   122c0:	4bb2                	lw	s7,12(sp)
   122c2:	4c22                	lw	s8,8(sp)
   122c4:	6145                	addi	sp,sp,48
   122c6:	8082                	ret
   122c8:	00492783          	lw	a5,4(s2)
   122cc:	40d4                	lw	a3,4(s1)
   122ce:	17fd                	addi	a5,a5,-1
   122d0:	04878263          	beq	a5,s0,12314 <__call_exitprocs+0xb2>
   122d4:	0004a223          	sw	zero,4(s1)
   122d8:	dae1                	beqz	a3,122a8 <__call_exitprocs+0x46>
   122da:	18892783          	lw	a5,392(s2)
   122de:	008a9733          	sll	a4,s5,s0
   122e2:	00492c03          	lw	s8,4(s2)
   122e6:	8ff9                	and	a5,a5,a4
   122e8:	ef89                	bnez	a5,12302 <__call_exitprocs+0xa0>
   122ea:	9682                	jalr	a3
   122ec:	00492703          	lw	a4,4(s2)
   122f0:	148a2783          	lw	a5,328(s4)
   122f4:	01871463          	bne	a4,s8,122fc <__call_exitprocs+0x9a>
   122f8:	fb2788e3          	beq	a5,s2,122a8 <__call_exitprocs+0x46>
   122fc:	dbd5                	beqz	a5,122b0 <__call_exitprocs+0x4e>
   122fe:	893e                	mv	s2,a5
   12300:	b771                	j	1228c <__call_exitprocs+0x2a>
   12302:	18c92783          	lw	a5,396(s2)
   12306:	0844a583          	lw	a1,132(s1)
   1230a:	8f7d                	and	a4,a4,a5
   1230c:	e719                	bnez	a4,1231a <__call_exitprocs+0xb8>
   1230e:	855a                	mv	a0,s6
   12310:	9682                	jalr	a3
   12312:	bfe9                	j	122ec <__call_exitprocs+0x8a>
   12314:	00892223          	sw	s0,4(s2)
   12318:	b7c1                	j	122d8 <__call_exitprocs+0x76>
   1231a:	852e                	mv	a0,a1
   1231c:	9682                	jalr	a3
   1231e:	b7f9                	j	122ec <__call_exitprocs+0x8a>

00012320 <__sflush_r>:
   12320:	00c59783          	lh	a5,12(a1)
   12324:	1101                	addi	sp,sp,-32
   12326:	cc22                	sw	s0,24(sp)
   12328:	c64e                	sw	s3,12(sp)
   1232a:	ce06                	sw	ra,28(sp)
   1232c:	ca26                	sw	s1,20(sp)
   1232e:	c84a                	sw	s2,16(sp)
   12330:	0087f713          	andi	a4,a5,8
   12334:	842e                	mv	s0,a1
   12336:	89aa                	mv	s3,a0
   12338:	e361                	bnez	a4,123f8 <__sflush_r+0xd8>
   1233a:	6705                	lui	a4,0x1
   1233c:	80070713          	addi	a4,a4,-2048 # 800 <exit-0xf8a0>
   12340:	41d4                	lw	a3,4(a1)
   12342:	8f5d                	or	a4,a4,a5
   12344:	00e59623          	sh	a4,12(a1)
   12348:	10d05363          	blez	a3,1244e <__sflush_r+0x12e>
   1234c:	02842803          	lw	a6,40(s0)
   12350:	08080c63          	beqz	a6,123e8 <__sflush_r+0xc8>
   12354:	83b1                	srli	a5,a5,0xc
   12356:	0009a483          	lw	s1,0(s3)
   1235a:	8b85                	andi	a5,a5,1
   1235c:	0009a023          	sw	zero,0(s3)
   12360:	4c4c                	lw	a1,28(s0)
   12362:	ebfd                	bnez	a5,12458 <__sflush_r+0x138>
   12364:	4601                	li	a2,0
   12366:	4685                	li	a3,1
   12368:	854e                	mv	a0,s3
   1236a:	9802                	jalr	a6
   1236c:	57fd                	li	a5,-1
   1236e:	862a                	mv	a2,a0
   12370:	10f50763          	beq	a0,a5,1247e <__sflush_r+0x15e>
   12374:	00c41703          	lh	a4,12(s0)
   12378:	02842803          	lw	a6,40(s0)
   1237c:	4c4c                	lw	a1,28(s0)
   1237e:	8b11                	andi	a4,a4,4
   12380:	c719                	beqz	a4,1238e <__sflush_r+0x6e>
   12382:	4058                	lw	a4,4(s0)
   12384:	581c                	lw	a5,48(s0)
   12386:	8e19                	sub	a2,a2,a4
   12388:	c399                	beqz	a5,1238e <__sflush_r+0x6e>
   1238a:	5c5c                	lw	a5,60(s0)
   1238c:	8e1d                	sub	a2,a2,a5
   1238e:	4681                	li	a3,0
   12390:	854e                	mv	a0,s3
   12392:	9802                	jalr	a6
   12394:	57fd                	li	a5,-1
   12396:	0cf51363          	bne	a0,a5,1245c <__sflush_r+0x13c>
   1239a:	0009a683          	lw	a3,0(s3)
   1239e:	47f5                	li	a5,29
   123a0:	08d7e963          	bltu	a5,a3,12432 <__sflush_r+0x112>
   123a4:	dfc00737          	lui	a4,0xdfc00
   123a8:	1779                	addi	a4,a4,-2 # dfbffffe <__BSS_END__+0xdfbe01c6>
   123aa:	40d75733          	sra	a4,a4,a3
   123ae:	8b05                	andi	a4,a4,1
   123b0:	00c41783          	lh	a5,12(s0)
   123b4:	e349                	bnez	a4,12436 <__sflush_r+0x116>
   123b6:	4810                	lw	a2,16(s0)
   123b8:	777d                	lui	a4,0xfffff
   123ba:	7ff70713          	addi	a4,a4,2047 # fffff7ff <__BSS_END__+0xfffdf9c7>
   123be:	8f7d                	and	a4,a4,a5
   123c0:	83b1                	srli	a5,a5,0xc
   123c2:	00e41623          	sh	a4,12(s0)
   123c6:	00042223          	sw	zero,4(s0)
   123ca:	c010                	sw	a2,0(s0)
   123cc:	8b85                	andi	a5,a5,1
   123ce:	e7f1                	bnez	a5,1249a <__sflush_r+0x17a>
   123d0:	580c                	lw	a1,48(s0)
   123d2:	0099a023          	sw	s1,0(s3)
   123d6:	c989                	beqz	a1,123e8 <__sflush_r+0xc8>
   123d8:	04040793          	addi	a5,s0,64
   123dc:	00f58463          	beq	a1,a5,123e4 <__sflush_r+0xc4>
   123e0:	854e                	mv	a0,s3
   123e2:	21e1                	jal	128aa <_free_r>
   123e4:	02042823          	sw	zero,48(s0)
   123e8:	4501                	li	a0,0
   123ea:	40f2                	lw	ra,28(sp)
   123ec:	4462                	lw	s0,24(sp)
   123ee:	44d2                	lw	s1,20(sp)
   123f0:	4942                	lw	s2,16(sp)
   123f2:	49b2                	lw	s3,12(sp)
   123f4:	6105                	addi	sp,sp,32
   123f6:	8082                	ret
   123f8:	0105a903          	lw	s2,16(a1)
   123fc:	fe0906e3          	beqz	s2,123e8 <__sflush_r+0xc8>
   12400:	4184                	lw	s1,0(a1)
   12402:	8b8d                	andi	a5,a5,3
   12404:	0125a023          	sw	s2,0(a1)
   12408:	412484b3          	sub	s1,s1,s2
   1240c:	4701                	li	a4,0
   1240e:	e391                	bnez	a5,12412 <__sflush_r+0xf2>
   12410:	49d8                	lw	a4,20(a1)
   12412:	c418                	sw	a4,8(s0)
   12414:	00904663          	bgtz	s1,12420 <__sflush_r+0x100>
   12418:	bfc1                	j	123e8 <__sflush_r+0xc8>
   1241a:	992a                	add	s2,s2,a0
   1241c:	fc9056e3          	blez	s1,123e8 <__sflush_r+0xc8>
   12420:	505c                	lw	a5,36(s0)
   12422:	4c4c                	lw	a1,28(s0)
   12424:	86a6                	mv	a3,s1
   12426:	864a                	mv	a2,s2
   12428:	854e                	mv	a0,s3
   1242a:	9782                	jalr	a5
   1242c:	8c89                	sub	s1,s1,a0
   1242e:	fea046e3          	bgtz	a0,1241a <__sflush_r+0xfa>
   12432:	00c41783          	lh	a5,12(s0)
   12436:	0407e793          	ori	a5,a5,64
   1243a:	40f2                	lw	ra,28(sp)
   1243c:	00f41623          	sh	a5,12(s0)
   12440:	4462                	lw	s0,24(sp)
   12442:	44d2                	lw	s1,20(sp)
   12444:	4942                	lw	s2,16(sp)
   12446:	49b2                	lw	s3,12(sp)
   12448:	557d                	li	a0,-1
   1244a:	6105                	addi	sp,sp,32
   1244c:	8082                	ret
   1244e:	5dd4                	lw	a3,60(a1)
   12450:	eed04ee3          	bgtz	a3,1234c <__sflush_r+0x2c>
   12454:	4501                	li	a0,0
   12456:	bf51                	j	123ea <__sflush_r+0xca>
   12458:	4830                	lw	a2,80(s0)
   1245a:	b715                	j	1237e <__sflush_r+0x5e>
   1245c:	00c41783          	lh	a5,12(s0)
   12460:	4814                	lw	a3,16(s0)
   12462:	777d                	lui	a4,0xfffff
   12464:	7ff70713          	addi	a4,a4,2047 # fffff7ff <__BSS_END__+0xfffdf9c7>
   12468:	8f7d                	and	a4,a4,a5
   1246a:	83b1                	srli	a5,a5,0xc
   1246c:	00e41623          	sh	a4,12(s0)
   12470:	00042223          	sw	zero,4(s0)
   12474:	c014                	sw	a3,0(s0)
   12476:	8b85                	andi	a5,a5,1
   12478:	dfa1                	beqz	a5,123d0 <__sflush_r+0xb0>
   1247a:	c828                	sw	a0,80(s0)
   1247c:	bf91                	j	123d0 <__sflush_r+0xb0>
   1247e:	0009a783          	lw	a5,0(s3)
   12482:	ee0789e3          	beqz	a5,12374 <__sflush_r+0x54>
   12486:	4775                	li	a4,29
   12488:	00e78563          	beq	a5,a4,12492 <__sflush_r+0x172>
   1248c:	4759                	li	a4,22
   1248e:	fae792e3          	bne	a5,a4,12432 <__sflush_r+0x112>
   12492:	0099a023          	sw	s1,0(s3)
   12496:	4501                	li	a0,0
   12498:	bf89                	j	123ea <__sflush_r+0xca>
   1249a:	fa9d                	bnez	a3,123d0 <__sflush_r+0xb0>
   1249c:	c828                	sw	a0,80(s0)
   1249e:	bf0d                	j	123d0 <__sflush_r+0xb0>

000124a0 <_fflush_r>:
   124a0:	1101                	addi	sp,sp,-32
   124a2:	cc22                	sw	s0,24(sp)
   124a4:	ce06                	sw	ra,28(sp)
   124a6:	842a                	mv	s0,a0
   124a8:	c119                	beqz	a0,124ae <_fflush_r+0xe>
   124aa:	5d1c                	lw	a5,56(a0)
   124ac:	cb89                	beqz	a5,124be <_fflush_r+0x1e>
   124ae:	00c59783          	lh	a5,12(a1)
   124b2:	ef81                	bnez	a5,124ca <_fflush_r+0x2a>
   124b4:	40f2                	lw	ra,28(sp)
   124b6:	4462                	lw	s0,24(sp)
   124b8:	4501                	li	a0,0
   124ba:	6105                	addi	sp,sp,32
   124bc:	8082                	ret
   124be:	c62e                	sw	a1,12(sp)
   124c0:	24c9                	jal	12782 <__sinit>
   124c2:	45b2                	lw	a1,12(sp)
   124c4:	00c59783          	lh	a5,12(a1)
   124c8:	d7f5                	beqz	a5,124b4 <_fflush_r+0x14>
   124ca:	8522                	mv	a0,s0
   124cc:	4462                	lw	s0,24(sp)
   124ce:	40f2                	lw	ra,28(sp)
   124d0:	6105                	addi	sp,sp,32
   124d2:	b5b9                	j	12320 <__sflush_r>

000124d4 <fflush>:
   124d4:	cd15                	beqz	a0,12510 <fflush+0x3c>
   124d6:	1101                	addi	sp,sp,-32
   124d8:	cc22                	sw	s0,24(sp)
   124da:	842a                	mv	s0,a0
   124dc:	5c01a503          	lw	a0,1472(gp) # 1fdd0 <_impure_ptr>
   124e0:	ce06                	sw	ra,28(sp)
   124e2:	c119                	beqz	a0,124e8 <fflush+0x14>
   124e4:	5d1c                	lw	a5,56(a0)
   124e6:	cf91                	beqz	a5,12502 <fflush+0x2e>
   124e8:	00c41783          	lh	a5,12(s0)
   124ec:	e791                	bnez	a5,124f8 <fflush+0x24>
   124ee:	40f2                	lw	ra,28(sp)
   124f0:	4462                	lw	s0,24(sp)
   124f2:	4501                	li	a0,0
   124f4:	6105                	addi	sp,sp,32
   124f6:	8082                	ret
   124f8:	85a2                	mv	a1,s0
   124fa:	4462                	lw	s0,24(sp)
   124fc:	40f2                	lw	ra,28(sp)
   124fe:	6105                	addi	sp,sp,32
   12500:	b505                	j	12320 <__sflush_r>
   12502:	c62a                	sw	a0,12(sp)
   12504:	2cbd                	jal	12782 <__sinit>
   12506:	00c41783          	lh	a5,12(s0)
   1250a:	4532                	lw	a0,12(sp)
   1250c:	d3ed                	beqz	a5,124ee <fflush+0x1a>
   1250e:	b7ed                	j	124f8 <fflush+0x24>
   12510:	5b81a503          	lw	a0,1464(gp) # 1fdc8 <_global_impure_ptr>
   12514:	65c9                	lui	a1,0x12
   12516:	4a058593          	addi	a1,a1,1184 # 124a0 <_fflush_r>
   1251a:	13b0006f          	j	12e54 <_fwalk_reent>

0001251e <__fp_lock>:
   1251e:	4501                	li	a0,0
   12520:	8082                	ret

00012522 <_cleanup_r>:
   12522:	65e9                	lui	a1,0x1a
   12524:	abe58593          	addi	a1,a1,-1346 # 19abe <_fclose_r>
   12528:	12d0006f          	j	12e54 <_fwalk_reent>

0001252c <__fp_unlock>:
   1252c:	4501                	li	a0,0
   1252e:	8082                	ret

00012530 <__sinit.part.0>:
   12530:	1101                	addi	sp,sp,-32
   12532:	67c9                	lui	a5,0x12
   12534:	ce06                	sw	ra,28(sp)
   12536:	cc22                	sw	s0,24(sp)
   12538:	ca26                	sw	s1,20(sp)
   1253a:	c84a                	sw	s2,16(sp)
   1253c:	c64e                	sw	s3,12(sp)
   1253e:	c452                	sw	s4,8(sp)
   12540:	c256                	sw	s5,4(sp)
   12542:	c05a                	sw	s6,0(sp)
   12544:	4140                	lw	s0,4(a0)
   12546:	52278793          	addi	a5,a5,1314 # 12522 <_cleanup_r>
   1254a:	dd5c                	sw	a5,60(a0)
   1254c:	2ec50713          	addi	a4,a0,748
   12550:	478d                	li	a5,3
   12552:	2ee52423          	sw	a4,744(a0)
   12556:	2ef52223          	sw	a5,740(a0)
   1255a:	2e052023          	sw	zero,736(a0)
   1255e:	4791                	li	a5,4
   12560:	892a                	mv	s2,a0
   12562:	c45c                	sw	a5,12(s0)
   12564:	4621                	li	a2,8
   12566:	4581                	li	a1,0
   12568:	00042023          	sw	zero,0(s0)
   1256c:	00042223          	sw	zero,4(s0)
   12570:	00042423          	sw	zero,8(s0)
   12574:	06042223          	sw	zero,100(s0)
   12578:	00042823          	sw	zero,16(s0)
   1257c:	00042a23          	sw	zero,20(s0)
   12580:	00042c23          	sw	zero,24(s0)
   12584:	05c40513          	addi	a0,s0,92
   12588:	d5ffd0ef          	jal	ra,102e6 <memset>
   1258c:	6b5d                	lui	s6,0x17
   1258e:	00892483          	lw	s1,8(s2)
   12592:	6add                	lui	s5,0x17
   12594:	6a5d                	lui	s4,0x17
   12596:	69dd                	lui	s3,0x17
   12598:	b2eb0b13          	addi	s6,s6,-1234 # 16b2e <__sread>
   1259c:	b6aa8a93          	addi	s5,s5,-1174 # 16b6a <__swrite>
   125a0:	bbea0a13          	addi	s4,s4,-1090 # 16bbe <__sseek>
   125a4:	c0898993          	addi	s3,s3,-1016 # 16c08 <__sclose>
   125a8:	67c1                	lui	a5,0x10
   125aa:	03642023          	sw	s6,32(s0)
   125ae:	03542223          	sw	s5,36(s0)
   125b2:	03442423          	sw	s4,40(s0)
   125b6:	03342623          	sw	s3,44(s0)
   125ba:	cc40                	sw	s0,28(s0)
   125bc:	07a5                	addi	a5,a5,9 # 10009 <exit-0x97>
   125be:	c4dc                	sw	a5,12(s1)
   125c0:	4621                	li	a2,8
   125c2:	4581                	li	a1,0
   125c4:	0004a023          	sw	zero,0(s1)
   125c8:	0004a223          	sw	zero,4(s1)
   125cc:	0004a423          	sw	zero,8(s1)
   125d0:	0604a223          	sw	zero,100(s1)
   125d4:	0004a823          	sw	zero,16(s1)
   125d8:	0004aa23          	sw	zero,20(s1)
   125dc:	0004ac23          	sw	zero,24(s1)
   125e0:	05c48513          	addi	a0,s1,92
   125e4:	d03fd0ef          	jal	ra,102e6 <memset>
   125e8:	00c92403          	lw	s0,12(s2)
   125ec:	000207b7          	lui	a5,0x20
   125f0:	0364a023          	sw	s6,32(s1)
   125f4:	0354a223          	sw	s5,36(s1)
   125f8:	0344a423          	sw	s4,40(s1)
   125fc:	0334a623          	sw	s3,44(s1)
   12600:	ccc4                	sw	s1,28(s1)
   12602:	07c9                	addi	a5,a5,18 # 20012 <__BSS_END__+0x1da>
   12604:	c45c                	sw	a5,12(s0)
   12606:	00042023          	sw	zero,0(s0)
   1260a:	00042223          	sw	zero,4(s0)
   1260e:	00042423          	sw	zero,8(s0)
   12612:	06042223          	sw	zero,100(s0)
   12616:	00042823          	sw	zero,16(s0)
   1261a:	00042a23          	sw	zero,20(s0)
   1261e:	00042c23          	sw	zero,24(s0)
   12622:	05c40513          	addi	a0,s0,92
   12626:	4621                	li	a2,8
   12628:	4581                	li	a1,0
   1262a:	cbdfd0ef          	jal	ra,102e6 <memset>
   1262e:	40f2                	lw	ra,28(sp)
   12630:	03642023          	sw	s6,32(s0)
   12634:	03542223          	sw	s5,36(s0)
   12638:	03442423          	sw	s4,40(s0)
   1263c:	03342623          	sw	s3,44(s0)
   12640:	cc40                	sw	s0,28(s0)
   12642:	4462                	lw	s0,24(sp)
   12644:	4785                	li	a5,1
   12646:	02f92c23          	sw	a5,56(s2)
   1264a:	44d2                	lw	s1,20(sp)
   1264c:	4942                	lw	s2,16(sp)
   1264e:	49b2                	lw	s3,12(sp)
   12650:	4a22                	lw	s4,8(sp)
   12652:	4a92                	lw	s5,4(sp)
   12654:	4b02                	lw	s6,0(sp)
   12656:	6105                	addi	sp,sp,32
   12658:	8082                	ret

0001265a <__sfmoreglue>:
   1265a:	1141                	addi	sp,sp,-16
   1265c:	c226                	sw	s1,4(sp)
   1265e:	06800793          	li	a5,104
   12662:	fff58493          	addi	s1,a1,-1
   12666:	02f484b3          	mul	s1,s1,a5
   1266a:	c04a                	sw	s2,0(sp)
   1266c:	892e                	mv	s2,a1
   1266e:	c422                	sw	s0,8(sp)
   12670:	c606                	sw	ra,12(sp)
   12672:	07448593          	addi	a1,s1,116
   12676:	353020ef          	jal	ra,151c8 <_malloc_r>
   1267a:	842a                	mv	s0,a0
   1267c:	cd01                	beqz	a0,12694 <__sfmoreglue+0x3a>
   1267e:	0531                	addi	a0,a0,12
   12680:	00042023          	sw	zero,0(s0)
   12684:	01242223          	sw	s2,4(s0)
   12688:	c408                	sw	a0,8(s0)
   1268a:	06848613          	addi	a2,s1,104
   1268e:	4581                	li	a1,0
   12690:	c57fd0ef          	jal	ra,102e6 <memset>
   12694:	40b2                	lw	ra,12(sp)
   12696:	8522                	mv	a0,s0
   12698:	4422                	lw	s0,8(sp)
   1269a:	4492                	lw	s1,4(sp)
   1269c:	4902                	lw	s2,0(sp)
   1269e:	0141                	addi	sp,sp,16
   126a0:	8082                	ret

000126a2 <__sfp>:
   126a2:	1101                	addi	sp,sp,-32
   126a4:	c84a                	sw	s2,16(sp)
   126a6:	5b81a903          	lw	s2,1464(gp) # 1fdc8 <_global_impure_ptr>
   126aa:	c64e                	sw	s3,12(sp)
   126ac:	ce06                	sw	ra,28(sp)
   126ae:	03892783          	lw	a5,56(s2)
   126b2:	cc22                	sw	s0,24(sp)
   126b4:	ca26                	sw	s1,20(sp)
   126b6:	89aa                	mv	s3,a0
   126b8:	c3c1                	beqz	a5,12738 <__sfp+0x96>
   126ba:	2e090913          	addi	s2,s2,736
   126be:	54fd                	li	s1,-1
   126c0:	00492783          	lw	a5,4(s2)
   126c4:	00892403          	lw	s0,8(s2)
   126c8:	17fd                	addi	a5,a5,-1
   126ca:	0007d763          	bgez	a5,126d8 <__sfp+0x36>
   126ce:	a085                	j	1272e <__sfp+0x8c>
   126d0:	06840413          	addi	s0,s0,104
   126d4:	04978d63          	beq	a5,s1,1272e <__sfp+0x8c>
   126d8:	00c41703          	lh	a4,12(s0)
   126dc:	17fd                	addi	a5,a5,-1
   126de:	fb6d                	bnez	a4,126d0 <__sfp+0x2e>
   126e0:	77c1                	lui	a5,0xffff0
   126e2:	0785                	addi	a5,a5,1 # ffff0001 <__BSS_END__+0xfffd01c9>
   126e4:	c45c                	sw	a5,12(s0)
   126e6:	06042223          	sw	zero,100(s0)
   126ea:	00042023          	sw	zero,0(s0)
   126ee:	00042423          	sw	zero,8(s0)
   126f2:	00042223          	sw	zero,4(s0)
   126f6:	00042823          	sw	zero,16(s0)
   126fa:	00042a23          	sw	zero,20(s0)
   126fe:	00042c23          	sw	zero,24(s0)
   12702:	4621                	li	a2,8
   12704:	4581                	li	a1,0
   12706:	05c40513          	addi	a0,s0,92
   1270a:	bddfd0ef          	jal	ra,102e6 <memset>
   1270e:	02042823          	sw	zero,48(s0)
   12712:	02042a23          	sw	zero,52(s0)
   12716:	04042223          	sw	zero,68(s0)
   1271a:	04042423          	sw	zero,72(s0)
   1271e:	40f2                	lw	ra,28(sp)
   12720:	8522                	mv	a0,s0
   12722:	4462                	lw	s0,24(sp)
   12724:	44d2                	lw	s1,20(sp)
   12726:	4942                	lw	s2,16(sp)
   12728:	49b2                	lw	s3,12(sp)
   1272a:	6105                	addi	sp,sp,32
   1272c:	8082                	ret
   1272e:	00092403          	lw	s0,0(s2)
   12732:	c411                	beqz	s0,1273e <__sfp+0x9c>
   12734:	8922                	mv	s2,s0
   12736:	b769                	j	126c0 <__sfp+0x1e>
   12738:	854a                	mv	a0,s2
   1273a:	3bdd                	jal	12530 <__sinit.part.0>
   1273c:	bfbd                	j	126ba <__sfp+0x18>
   1273e:	1ac00593          	li	a1,428
   12742:	854e                	mv	a0,s3
   12744:	285020ef          	jal	ra,151c8 <_malloc_r>
   12748:	842a                	mv	s0,a0
   1274a:	c105                	beqz	a0,1276a <__sfp+0xc8>
   1274c:	0531                	addi	a0,a0,12
   1274e:	4791                	li	a5,4
   12750:	00042023          	sw	zero,0(s0)
   12754:	c05c                	sw	a5,4(s0)
   12756:	c408                	sw	a0,8(s0)
   12758:	1a000613          	li	a2,416
   1275c:	4581                	li	a1,0
   1275e:	b89fd0ef          	jal	ra,102e6 <memset>
   12762:	00892023          	sw	s0,0(s2)
   12766:	8922                	mv	s2,s0
   12768:	bfa1                	j	126c0 <__sfp+0x1e>
   1276a:	00092023          	sw	zero,0(s2)
   1276e:	47b1                	li	a5,12
   12770:	00f9a023          	sw	a5,0(s3)
   12774:	b76d                	j	1271e <__sfp+0x7c>

00012776 <_cleanup>:
   12776:	5b81a503          	lw	a0,1464(gp) # 1fdc8 <_global_impure_ptr>
   1277a:	65e9                	lui	a1,0x1a
   1277c:	abe58593          	addi	a1,a1,-1346 # 19abe <_fclose_r>
   12780:	add1                	j	12e54 <_fwalk_reent>

00012782 <__sinit>:
   12782:	5d1c                	lw	a5,56(a0)
   12784:	c391                	beqz	a5,12788 <__sinit+0x6>
   12786:	8082                	ret
   12788:	b365                	j	12530 <__sinit.part.0>

0001278a <__sfp_lock_acquire>:
   1278a:	8082                	ret

0001278c <__sfp_lock_release>:
   1278c:	8082                	ret

0001278e <__sinit_lock_acquire>:
   1278e:	8082                	ret

00012790 <__sinit_lock_release>:
   12790:	8082                	ret

00012792 <__fp_lock_all>:
   12792:	5c01a503          	lw	a0,1472(gp) # 1fdd0 <_impure_ptr>
   12796:	65c9                	lui	a1,0x12
   12798:	51e58593          	addi	a1,a1,1310 # 1251e <__fp_lock>
   1279c:	a5b1                	j	12de8 <_fwalk>

0001279e <__fp_unlock_all>:
   1279e:	5c01a503          	lw	a0,1472(gp) # 1fdd0 <_impure_ptr>
   127a2:	65c9                	lui	a1,0x12
   127a4:	52c58593          	addi	a1,a1,1324 # 1252c <__fp_unlock>
   127a8:	a581                	j	12de8 <_fwalk>

000127aa <__libc_fini_array>:
   127aa:	1141                	addi	sp,sp,-16
   127ac:	c422                	sw	s0,8(sp)
   127ae:	0001f7b7          	lui	a5,0x1f
   127b2:	0001f437          	lui	s0,0x1f
   127b6:	00c78793          	addi	a5,a5,12 # 1f00c <__do_global_dtors_aux_fini_array_entry>
   127ba:	01040413          	addi	s0,s0,16 # 1f010 <a>
   127be:	8c1d                	sub	s0,s0,a5
   127c0:	c226                	sw	s1,4(sp)
   127c2:	c606                	sw	ra,12(sp)
   127c4:	40245493          	srai	s1,s0,0x2
   127c8:	c881                	beqz	s1,127d8 <__libc_fini_array+0x2e>
   127ca:	1471                	addi	s0,s0,-4
   127cc:	943e                	add	s0,s0,a5
   127ce:	401c                	lw	a5,0(s0)
   127d0:	14fd                	addi	s1,s1,-1
   127d2:	1471                	addi	s0,s0,-4
   127d4:	9782                	jalr	a5
   127d6:	fce5                	bnez	s1,127ce <__libc_fini_array+0x24>
   127d8:	40b2                	lw	ra,12(sp)
   127da:	4422                	lw	s0,8(sp)
   127dc:	4492                	lw	s1,4(sp)
   127de:	0141                	addi	sp,sp,16
   127e0:	8082                	ret

000127e2 <_malloc_trim_r>:
   127e2:	1101                	addi	sp,sp,-32
   127e4:	c64e                	sw	s3,12(sp)
   127e6:	cc22                	sw	s0,24(sp)
   127e8:	ca26                	sw	s1,20(sp)
   127ea:	c84a                	sw	s2,16(sp)
   127ec:	c452                	sw	s4,8(sp)
   127ee:	ce06                	sw	ra,28(sp)
   127f0:	8a2e                	mv	s4,a1
   127f2:	892a                	mv	s2,a0
   127f4:	19418993          	addi	s3,gp,404 # 1f9a4 <__malloc_av_>
   127f8:	244030ef          	jal	ra,15a3c <__malloc_lock>
   127fc:	0089a703          	lw	a4,8(s3)
   12800:	6785                	lui	a5,0x1
   12802:	fef78413          	addi	s0,a5,-17 # fef <exit-0xf0b1>
   12806:	4344                	lw	s1,4(a4)
   12808:	98f1                	andi	s1,s1,-4
   1280a:	9426                	add	s0,s0,s1
   1280c:	41440433          	sub	s0,s0,s4
   12810:	8031                	srli	s0,s0,0xc
   12812:	147d                	addi	s0,s0,-1
   12814:	0432                	slli	s0,s0,0xc
   12816:	00f44b63          	blt	s0,a5,1282c <_malloc_trim_r+0x4a>
   1281a:	4581                	li	a1,0
   1281c:	854a                	mv	a0,s2
   1281e:	1d4040ef          	jal	ra,169f2 <_sbrk_r>
   12822:	0089a783          	lw	a5,8(s3)
   12826:	97a6                	add	a5,a5,s1
   12828:	00f50e63          	beq	a0,a5,12844 <_malloc_trim_r+0x62>
   1282c:	854a                	mv	a0,s2
   1282e:	210030ef          	jal	ra,15a3e <__malloc_unlock>
   12832:	40f2                	lw	ra,28(sp)
   12834:	4462                	lw	s0,24(sp)
   12836:	44d2                	lw	s1,20(sp)
   12838:	4942                	lw	s2,16(sp)
   1283a:	49b2                	lw	s3,12(sp)
   1283c:	4a22                	lw	s4,8(sp)
   1283e:	4501                	li	a0,0
   12840:	6105                	addi	sp,sp,32
   12842:	8082                	ret
   12844:	408005b3          	neg	a1,s0
   12848:	854a                	mv	a0,s2
   1284a:	1a8040ef          	jal	ra,169f2 <_sbrk_r>
   1284e:	57fd                	li	a5,-1
   12850:	02f50963          	beq	a0,a5,12882 <_malloc_trim_r+0xa0>
   12854:	60018793          	addi	a5,gp,1536 # 1fe10 <__malloc_current_mallinfo>
   12858:	4398                	lw	a4,0(a5)
   1285a:	0089a683          	lw	a3,8(s3)
   1285e:	8c81                	sub	s1,s1,s0
   12860:	0014e493          	ori	s1,s1,1
   12864:	8f01                	sub	a4,a4,s0
   12866:	854a                	mv	a0,s2
   12868:	c2c4                	sw	s1,4(a3)
   1286a:	c398                	sw	a4,0(a5)
   1286c:	1d2030ef          	jal	ra,15a3e <__malloc_unlock>
   12870:	40f2                	lw	ra,28(sp)
   12872:	4462                	lw	s0,24(sp)
   12874:	44d2                	lw	s1,20(sp)
   12876:	4942                	lw	s2,16(sp)
   12878:	49b2                	lw	s3,12(sp)
   1287a:	4a22                	lw	s4,8(sp)
   1287c:	4505                	li	a0,1
   1287e:	6105                	addi	sp,sp,32
   12880:	8082                	ret
   12882:	4581                	li	a1,0
   12884:	854a                	mv	a0,s2
   12886:	16c040ef          	jal	ra,169f2 <_sbrk_r>
   1288a:	0089a703          	lw	a4,8(s3)
   1288e:	46bd                	li	a3,15
   12890:	40e507b3          	sub	a5,a0,a4
   12894:	f8f6dce3          	bge	a3,a5,1282c <_malloc_trim_r+0x4a>
   12898:	5c41a683          	lw	a3,1476(gp) # 1fdd4 <__malloc_sbrk_base>
   1289c:	0017e793          	ori	a5,a5,1
   128a0:	c35c                	sw	a5,4(a4)
   128a2:	8d15                	sub	a0,a0,a3
   128a4:	60a1a023          	sw	a0,1536(gp) # 1fe10 <__malloc_current_mallinfo>
   128a8:	b751                	j	1282c <_malloc_trim_r+0x4a>

000128aa <_free_r>:
   128aa:	10058a63          	beqz	a1,129be <_free_r+0x114>
   128ae:	1141                	addi	sp,sp,-16
   128b0:	c422                	sw	s0,8(sp)
   128b2:	c226                	sw	s1,4(sp)
   128b4:	842e                	mv	s0,a1
   128b6:	84aa                	mv	s1,a0
   128b8:	c606                	sw	ra,12(sp)
   128ba:	182030ef          	jal	ra,15a3c <__malloc_lock>
   128be:	ffc42503          	lw	a0,-4(s0)
   128c2:	ff840713          	addi	a4,s0,-8
   128c6:	ffe57793          	andi	a5,a0,-2
   128ca:	00f70633          	add	a2,a4,a5
   128ce:	19418593          	addi	a1,gp,404 # 1f9a4 <__malloc_av_>
   128d2:	4254                	lw	a3,4(a2)
   128d4:	0085a803          	lw	a6,8(a1)
   128d8:	9af1                	andi	a3,a3,-4
   128da:	12c80363          	beq	a6,a2,12a00 <_free_r+0x156>
   128de:	c254                	sw	a3,4(a2)
   128e0:	8905                	andi	a0,a0,1
   128e2:	00d60833          	add	a6,a2,a3
   128e6:	e935                	bnez	a0,1295a <_free_r+0xb0>
   128e8:	ff842303          	lw	t1,-8(s0)
   128ec:	00482803          	lw	a6,4(a6)
   128f0:	40670733          	sub	a4,a4,t1
   128f4:	00872883          	lw	a7,8(a4)
   128f8:	19c18513          	addi	a0,gp,412 # 1f9ac <__malloc_av_+0x8>
   128fc:	979a                	add	a5,a5,t1
   128fe:	00187813          	andi	a6,a6,1
   12902:	0ea88263          	beq	a7,a0,129e6 <_free_r+0x13c>
   12906:	00c72303          	lw	t1,12(a4)
   1290a:	0068a623          	sw	t1,12(a7)
   1290e:	01132423          	sw	a7,8(t1)
   12912:	10080f63          	beqz	a6,12a30 <_free_r+0x186>
   12916:	0017e693          	ori	a3,a5,1
   1291a:	c354                	sw	a3,4(a4)
   1291c:	c21c                	sw	a5,0(a2)
   1291e:	1ff00693          	li	a3,511
   12922:	04f6e963          	bltu	a3,a5,12974 <_free_r+0xca>
   12926:	ff87f693          	andi	a3,a5,-8
   1292a:	06a1                	addi	a3,a3,8
   1292c:	41c8                	lw	a0,4(a1)
   1292e:	96ae                	add	a3,a3,a1
   12930:	4290                	lw	a2,0(a3)
   12932:	0057d813          	srli	a6,a5,0x5
   12936:	4785                	li	a5,1
   12938:	010797b3          	sll	a5,a5,a6
   1293c:	8fc9                	or	a5,a5,a0
   1293e:	ff868513          	addi	a0,a3,-8
   12942:	c748                	sw	a0,12(a4)
   12944:	c710                	sw	a2,8(a4)
   12946:	c1dc                	sw	a5,4(a1)
   12948:	c298                	sw	a4,0(a3)
   1294a:	c658                	sw	a4,12(a2)
   1294c:	4422                	lw	s0,8(sp)
   1294e:	40b2                	lw	ra,12(sp)
   12950:	8526                	mv	a0,s1
   12952:	4492                	lw	s1,4(sp)
   12954:	0141                	addi	sp,sp,16
   12956:	0e80306f          	j	15a3e <__malloc_unlock>
   1295a:	00482503          	lw	a0,4(a6)
   1295e:	8905                	andi	a0,a0,1
   12960:	c125                	beqz	a0,129c0 <_free_r+0x116>
   12962:	0017e693          	ori	a3,a5,1
   12966:	fed42e23          	sw	a3,-4(s0)
   1296a:	c21c                	sw	a5,0(a2)
   1296c:	1ff00693          	li	a3,511
   12970:	faf6fbe3          	bgeu	a3,a5,12926 <_free_r+0x7c>
   12974:	0097d693          	srli	a3,a5,0x9
   12978:	4611                	li	a2,4
   1297a:	0ad66d63          	bltu	a2,a3,12a34 <_free_r+0x18a>
   1297e:	0067d693          	srli	a3,a5,0x6
   12982:	03968513          	addi	a0,a3,57
   12986:	03868613          	addi	a2,a3,56
   1298a:	050e                	slli	a0,a0,0x3
   1298c:	952e                	add	a0,a0,a1
   1298e:	4114                	lw	a3,0(a0)
   12990:	1561                	addi	a0,a0,-8
   12992:	00d51663          	bne	a0,a3,1299e <_free_r+0xf4>
   12996:	a8f1                	j	12a72 <_free_r+0x1c8>
   12998:	4694                	lw	a3,8(a3)
   1299a:	00d50663          	beq	a0,a3,129a6 <_free_r+0xfc>
   1299e:	42d0                	lw	a2,4(a3)
   129a0:	9a71                	andi	a2,a2,-4
   129a2:	fec7ebe3          	bltu	a5,a2,12998 <_free_r+0xee>
   129a6:	46c8                	lw	a0,12(a3)
   129a8:	c748                	sw	a0,12(a4)
   129aa:	c714                	sw	a3,8(a4)
   129ac:	4422                	lw	s0,8(sp)
   129ae:	c518                	sw	a4,8(a0)
   129b0:	40b2                	lw	ra,12(sp)
   129b2:	8526                	mv	a0,s1
   129b4:	4492                	lw	s1,4(sp)
   129b6:	c6d8                	sw	a4,12(a3)
   129b8:	0141                	addi	sp,sp,16
   129ba:	0840306f          	j	15a3e <__malloc_unlock>
   129be:	8082                	ret
   129c0:	97b6                	add	a5,a5,a3
   129c2:	19c18513          	addi	a0,gp,412 # 1f9ac <__malloc_av_+0x8>
   129c6:	4614                	lw	a3,8(a2)
   129c8:	08a68b63          	beq	a3,a0,12a5e <_free_r+0x1b4>
   129cc:	00c62803          	lw	a6,12(a2)
   129d0:	0017e513          	ori	a0,a5,1
   129d4:	00f70633          	add	a2,a4,a5
   129d8:	0106a623          	sw	a6,12(a3)
   129dc:	00d82423          	sw	a3,8(a6)
   129e0:	c348                	sw	a0,4(a4)
   129e2:	c21c                	sw	a5,0(a2)
   129e4:	bf2d                	j	1291e <_free_r+0x74>
   129e6:	0c081d63          	bnez	a6,12ac0 <_free_r+0x216>
   129ea:	460c                	lw	a1,8(a2)
   129ec:	4650                	lw	a2,12(a2)
   129ee:	96be                	add	a3,a3,a5
   129f0:	0016e793          	ori	a5,a3,1
   129f4:	c5d0                	sw	a2,12(a1)
   129f6:	c60c                	sw	a1,8(a2)
   129f8:	c35c                	sw	a5,4(a4)
   129fa:	9736                	add	a4,a4,a3
   129fc:	c314                	sw	a3,0(a4)
   129fe:	b7b9                	j	1294c <_free_r+0xa2>
   12a00:	8905                	andi	a0,a0,1
   12a02:	96be                	add	a3,a3,a5
   12a04:	e909                	bnez	a0,12a16 <_free_r+0x16c>
   12a06:	ff842503          	lw	a0,-8(s0)
   12a0a:	8f09                	sub	a4,a4,a0
   12a0c:	475c                	lw	a5,12(a4)
   12a0e:	4710                	lw	a2,8(a4)
   12a10:	96aa                	add	a3,a3,a0
   12a12:	c65c                	sw	a5,12(a2)
   12a14:	c790                	sw	a2,8(a5)
   12a16:	0016e613          	ori	a2,a3,1
   12a1a:	5c81a783          	lw	a5,1480(gp) # 1fdd8 <__malloc_trim_threshold>
   12a1e:	c350                	sw	a2,4(a4)
   12a20:	c598                	sw	a4,8(a1)
   12a22:	f2f6e5e3          	bltu	a3,a5,1294c <_free_r+0xa2>
   12a26:	5d81a583          	lw	a1,1496(gp) # 1fde8 <__malloc_top_pad>
   12a2a:	8526                	mv	a0,s1
   12a2c:	3b5d                	jal	127e2 <_malloc_trim_r>
   12a2e:	bf39                	j	1294c <_free_r+0xa2>
   12a30:	97b6                	add	a5,a5,a3
   12a32:	bf51                	j	129c6 <_free_r+0x11c>
   12a34:	4651                	li	a2,20
   12a36:	00d67e63          	bgeu	a2,a3,12a52 <_free_r+0x1a8>
   12a3a:	05400613          	li	a2,84
   12a3e:	04d66463          	bltu	a2,a3,12a86 <_free_r+0x1dc>
   12a42:	00c7d693          	srli	a3,a5,0xc
   12a46:	06f68513          	addi	a0,a3,111
   12a4a:	06e68613          	addi	a2,a3,110
   12a4e:	050e                	slli	a0,a0,0x3
   12a50:	bf35                	j	1298c <_free_r+0xe2>
   12a52:	05c68513          	addi	a0,a3,92
   12a56:	05b68613          	addi	a2,a3,91
   12a5a:	050e                	slli	a0,a0,0x3
   12a5c:	bf05                	j	1298c <_free_r+0xe2>
   12a5e:	c9d8                	sw	a4,20(a1)
   12a60:	c998                	sw	a4,16(a1)
   12a62:	0017e693          	ori	a3,a5,1
   12a66:	c748                	sw	a0,12(a4)
   12a68:	c708                	sw	a0,8(a4)
   12a6a:	c354                	sw	a3,4(a4)
   12a6c:	973e                	add	a4,a4,a5
   12a6e:	c31c                	sw	a5,0(a4)
   12a70:	bdf1                	j	1294c <_free_r+0xa2>
   12a72:	0045a803          	lw	a6,4(a1)
   12a76:	8609                	srai	a2,a2,0x2
   12a78:	4785                	li	a5,1
   12a7a:	00c797b3          	sll	a5,a5,a2
   12a7e:	0107e7b3          	or	a5,a5,a6
   12a82:	c1dc                	sw	a5,4(a1)
   12a84:	b715                	j	129a8 <_free_r+0xfe>
   12a86:	15400613          	li	a2,340
   12a8a:	00d66a63          	bltu	a2,a3,12a9e <_free_r+0x1f4>
   12a8e:	00f7d693          	srli	a3,a5,0xf
   12a92:	07868513          	addi	a0,a3,120
   12a96:	07768613          	addi	a2,a3,119
   12a9a:	050e                	slli	a0,a0,0x3
   12a9c:	bdc5                	j	1298c <_free_r+0xe2>
   12a9e:	55400613          	li	a2,1364
   12aa2:	00d66a63          	bltu	a2,a3,12ab6 <_free_r+0x20c>
   12aa6:	0127d693          	srli	a3,a5,0x12
   12aaa:	07d68513          	addi	a0,a3,125
   12aae:	07c68613          	addi	a2,a3,124
   12ab2:	050e                	slli	a0,a0,0x3
   12ab4:	bde1                	j	1298c <_free_r+0xe2>
   12ab6:	3f800513          	li	a0,1016
   12aba:	07e00613          	li	a2,126
   12abe:	b5f9                	j	1298c <_free_r+0xe2>
   12ac0:	0017e693          	ori	a3,a5,1
   12ac4:	c354                	sw	a3,4(a4)
   12ac6:	c21c                	sw	a5,0(a2)
   12ac8:	b551                	j	1294c <_free_r+0xa2>

00012aca <__sfvwrite_r>:
   12aca:	461c                	lw	a5,8(a2)
   12acc:	22078063          	beqz	a5,12cec <__sfvwrite_r+0x222>
   12ad0:	00c59683          	lh	a3,12(a1)
   12ad4:	7179                	addi	sp,sp,-48
   12ad6:	d422                	sw	s0,40(sp)
   12ad8:	cc52                	sw	s4,24(sp)
   12ada:	c85a                	sw	s6,16(sp)
   12adc:	d606                	sw	ra,44(sp)
   12ade:	d226                	sw	s1,36(sp)
   12ae0:	d04a                	sw	s2,32(sp)
   12ae2:	ce4e                	sw	s3,28(sp)
   12ae4:	ca56                	sw	s5,20(sp)
   12ae6:	c65e                	sw	s7,12(sp)
   12ae8:	c462                	sw	s8,8(sp)
   12aea:	c266                	sw	s9,4(sp)
   12aec:	0086f793          	andi	a5,a3,8
   12af0:	8b32                	mv	s6,a2
   12af2:	8a2a                	mv	s4,a0
   12af4:	842e                	mv	s0,a1
   12af6:	c3ad                	beqz	a5,12b58 <__sfvwrite_r+0x8e>
   12af8:	499c                	lw	a5,16(a1)
   12afa:	cfb9                	beqz	a5,12b58 <__sfvwrite_r+0x8e>
   12afc:	0026f793          	andi	a5,a3,2
   12b00:	000b2483          	lw	s1,0(s6)
   12b04:	c7bd                	beqz	a5,12b72 <__sfvwrite_r+0xa8>
   12b06:	505c                	lw	a5,36(s0)
   12b08:	4c4c                	lw	a1,28(s0)
   12b0a:	80000ab7          	lui	s5,0x80000
   12b0e:	4981                	li	s3,0
   12b10:	4901                	li	s2,0
   12b12:	c00aca93          	xori	s5,s5,-1024
   12b16:	864e                	mv	a2,s3
   12b18:	8552                	mv	a0,s4
   12b1a:	02090963          	beqz	s2,12b4c <__sfvwrite_r+0x82>
   12b1e:	86ca                	mv	a3,s2
   12b20:	012af363          	bgeu	s5,s2,12b26 <__sfvwrite_r+0x5c>
   12b24:	86d6                	mv	a3,s5
   12b26:	9782                	jalr	a5
   12b28:	1aa05a63          	blez	a0,12cdc <__sfvwrite_r+0x212>
   12b2c:	008b2783          	lw	a5,8(s6)
   12b30:	99aa                	add	s3,s3,a0
   12b32:	40a90933          	sub	s2,s2,a0
   12b36:	8f89                	sub	a5,a5,a0
   12b38:	00fb2423          	sw	a5,8(s6)
   12b3c:	16078d63          	beqz	a5,12cb6 <__sfvwrite_r+0x1ec>
   12b40:	505c                	lw	a5,36(s0)
   12b42:	4c4c                	lw	a1,28(s0)
   12b44:	864e                	mv	a2,s3
   12b46:	8552                	mv	a0,s4
   12b48:	fc091be3          	bnez	s2,12b1e <__sfvwrite_r+0x54>
   12b4c:	0004a983          	lw	s3,0(s1)
   12b50:	0044a903          	lw	s2,4(s1)
   12b54:	04a1                	addi	s1,s1,8
   12b56:	b7c1                	j	12b16 <__sfvwrite_r+0x4c>
   12b58:	85a2                	mv	a1,s0
   12b5a:	8552                	mv	a0,s4
   12b5c:	e2eff0ef          	jal	ra,1218a <__swsetup_r>
   12b60:	18051463          	bnez	a0,12ce8 <__sfvwrite_r+0x21e>
   12b64:	00c41683          	lh	a3,12(s0)
   12b68:	000b2483          	lw	s1,0(s6)
   12b6c:	0026f793          	andi	a5,a3,2
   12b70:	fbd9                	bnez	a5,12b06 <__sfvwrite_r+0x3c>
   12b72:	0016f793          	andi	a5,a3,1
   12b76:	e3ed                	bnez	a5,12c58 <__sfvwrite_r+0x18e>
   12b78:	401c                	lw	a5,0(s0)
   12b7a:	4418                	lw	a4,8(s0)
   12b7c:	80000ab7          	lui	s5,0x80000
   12b80:	4b81                	li	s7,0
   12b82:	4981                	li	s3,0
   12b84:	fffaca93          	not	s5,s5
   12b88:	853e                	mv	a0,a5
   12b8a:	8c3a                	mv	s8,a4
   12b8c:	0c098063          	beqz	s3,12c4c <__sfvwrite_r+0x182>
   12b90:	2006f613          	andi	a2,a3,512
   12b94:	18060d63          	beqz	a2,12d2e <__sfvwrite_r+0x264>
   12b98:	8cba                	mv	s9,a4
   12b9a:	1ee9ec63          	bltu	s3,a4,12d92 <__sfvwrite_r+0x2c8>
   12b9e:	4806f713          	andi	a4,a3,1152
   12ba2:	cb25                	beqz	a4,12c12 <__sfvwrite_r+0x148>
   12ba4:	4850                	lw	a2,20(s0)
   12ba6:	480c                	lw	a1,16(s0)
   12ba8:	00161713          	slli	a4,a2,0x1
   12bac:	9732                	add	a4,a4,a2
   12bae:	40b78933          	sub	s2,a5,a1
   12bb2:	01f75c13          	srli	s8,a4,0x1f
   12bb6:	9c3a                	add	s8,s8,a4
   12bb8:	00190793          	addi	a5,s2,1
   12bbc:	401c5c13          	srai	s8,s8,0x1
   12bc0:	97ce                	add	a5,a5,s3
   12bc2:	8662                	mv	a2,s8
   12bc4:	00fc7463          	bgeu	s8,a5,12bcc <__sfvwrite_r+0x102>
   12bc8:	8c3e                	mv	s8,a5
   12bca:	863e                	mv	a2,a5
   12bcc:	4006f693          	andi	a3,a3,1024
   12bd0:	1e068163          	beqz	a3,12db2 <__sfvwrite_r+0x2e8>
   12bd4:	85b2                	mv	a1,a2
   12bd6:	8552                	mv	a0,s4
   12bd8:	5f0020ef          	jal	ra,151c8 <_malloc_r>
   12bdc:	8caa                	mv	s9,a0
   12bde:	1e050f63          	beqz	a0,12ddc <__sfvwrite_r+0x312>
   12be2:	480c                	lw	a1,16(s0)
   12be4:	864a                	mv	a2,s2
   12be6:	43f020ef          	jal	ra,15824 <memcpy>
   12bea:	00c45783          	lhu	a5,12(s0)
   12bee:	b7f7f793          	andi	a5,a5,-1153
   12bf2:	0807e793          	ori	a5,a5,128
   12bf6:	00f41623          	sh	a5,12(s0)
   12bfa:	012c8533          	add	a0,s9,s2
   12bfe:	412c07b3          	sub	a5,s8,s2
   12c02:	01942823          	sw	s9,16(s0)
   12c06:	01842a23          	sw	s8,20(s0)
   12c0a:	c008                	sw	a0,0(s0)
   12c0c:	8c4e                	mv	s8,s3
   12c0e:	c41c                	sw	a5,8(s0)
   12c10:	8cce                	mv	s9,s3
   12c12:	8666                	mv	a2,s9
   12c14:	85de                	mv	a1,s7
   12c16:	555020ef          	jal	ra,1596a <memmove>
   12c1a:	4418                	lw	a4,8(s0)
   12c1c:	401c                	lw	a5,0(s0)
   12c1e:	894e                	mv	s2,s3
   12c20:	41870733          	sub	a4,a4,s8
   12c24:	97e6                	add	a5,a5,s9
   12c26:	c418                	sw	a4,8(s0)
   12c28:	c01c                	sw	a5,0(s0)
   12c2a:	4981                	li	s3,0
   12c2c:	008b2783          	lw	a5,8(s6)
   12c30:	9bca                	add	s7,s7,s2
   12c32:	412787b3          	sub	a5,a5,s2
   12c36:	00fb2423          	sw	a5,8(s6)
   12c3a:	cfb5                	beqz	a5,12cb6 <__sfvwrite_r+0x1ec>
   12c3c:	401c                	lw	a5,0(s0)
   12c3e:	4418                	lw	a4,8(s0)
   12c40:	00c41683          	lh	a3,12(s0)
   12c44:	853e                	mv	a0,a5
   12c46:	8c3a                	mv	s8,a4
   12c48:	f40994e3          	bnez	s3,12b90 <__sfvwrite_r+0xc6>
   12c4c:	0004ab83          	lw	s7,0(s1)
   12c50:	0044a983          	lw	s3,4(s1)
   12c54:	04a1                	addi	s1,s1,8
   12c56:	bf0d                	j	12b88 <__sfvwrite_r+0xbe>
   12c58:	4a81                	li	s5,0
   12c5a:	4501                	li	a0,0
   12c5c:	4c01                	li	s8,0
   12c5e:	4981                	li	s3,0
   12c60:	08098863          	beqz	s3,12cf0 <__sfvwrite_r+0x226>
   12c64:	cd51                	beqz	a0,12d00 <__sfvwrite_r+0x236>
   12c66:	87d6                	mv	a5,s5
   12c68:	8bce                	mv	s7,s3
   12c6a:	0137f363          	bgeu	a5,s3,12c70 <__sfvwrite_r+0x1a6>
   12c6e:	8bbe                	mv	s7,a5
   12c70:	4008                	lw	a0,0(s0)
   12c72:	481c                	lw	a5,16(s0)
   12c74:	00842903          	lw	s2,8(s0)
   12c78:	4854                	lw	a3,20(s0)
   12c7a:	00a7f563          	bgeu	a5,a0,12c84 <__sfvwrite_r+0x1ba>
   12c7e:	9936                	add	s2,s2,a3
   12c80:	09794a63          	blt	s2,s7,12d14 <__sfvwrite_r+0x24a>
   12c84:	10dbca63          	blt	s7,a3,12d98 <__sfvwrite_r+0x2ce>
   12c88:	505c                	lw	a5,36(s0)
   12c8a:	4c4c                	lw	a1,28(s0)
   12c8c:	8662                	mv	a2,s8
   12c8e:	8552                	mv	a0,s4
   12c90:	9782                	jalr	a5
   12c92:	892a                	mv	s2,a0
   12c94:	04a05463          	blez	a0,12cdc <__sfvwrite_r+0x212>
   12c98:	412a8ab3          	sub	s5,s5,s2
   12c9c:	4505                	li	a0,1
   12c9e:	020a8a63          	beqz	s5,12cd2 <__sfvwrite_r+0x208>
   12ca2:	008b2783          	lw	a5,8(s6)
   12ca6:	9c4a                	add	s8,s8,s2
   12ca8:	412989b3          	sub	s3,s3,s2
   12cac:	412787b3          	sub	a5,a5,s2
   12cb0:	00fb2423          	sw	a5,8(s6)
   12cb4:	f7d5                	bnez	a5,12c60 <__sfvwrite_r+0x196>
   12cb6:	4501                	li	a0,0
   12cb8:	50b2                	lw	ra,44(sp)
   12cba:	5422                	lw	s0,40(sp)
   12cbc:	5492                	lw	s1,36(sp)
   12cbe:	5902                	lw	s2,32(sp)
   12cc0:	49f2                	lw	s3,28(sp)
   12cc2:	4a62                	lw	s4,24(sp)
   12cc4:	4ad2                	lw	s5,20(sp)
   12cc6:	4b42                	lw	s6,16(sp)
   12cc8:	4bb2                	lw	s7,12(sp)
   12cca:	4c22                	lw	s8,8(sp)
   12ccc:	4c92                	lw	s9,4(sp)
   12cce:	6145                	addi	sp,sp,48
   12cd0:	8082                	ret
   12cd2:	85a2                	mv	a1,s0
   12cd4:	8552                	mv	a0,s4
   12cd6:	fcaff0ef          	jal	ra,124a0 <_fflush_r>
   12cda:	d561                	beqz	a0,12ca2 <__sfvwrite_r+0x1d8>
   12cdc:	00c41783          	lh	a5,12(s0)
   12ce0:	0407e793          	ori	a5,a5,64
   12ce4:	00f41623          	sh	a5,12(s0)
   12ce8:	557d                	li	a0,-1
   12cea:	b7f9                	j	12cb8 <__sfvwrite_r+0x1ee>
   12cec:	4501                	li	a0,0
   12cee:	8082                	ret
   12cf0:	0044a983          	lw	s3,4(s1)
   12cf4:	87a6                	mv	a5,s1
   12cf6:	04a1                	addi	s1,s1,8
   12cf8:	fe098ce3          	beqz	s3,12cf0 <__sfvwrite_r+0x226>
   12cfc:	0007ac03          	lw	s8,0(a5)
   12d00:	864e                	mv	a2,s3
   12d02:	45a9                	li	a1,10
   12d04:	8562                	mv	a0,s8
   12d06:	28f020ef          	jal	ra,15794 <memchr>
   12d0a:	c569                	beqz	a0,12dd4 <__sfvwrite_r+0x30a>
   12d0c:	0505                	addi	a0,a0,1
   12d0e:	41850ab3          	sub	s5,a0,s8
   12d12:	bf91                	j	12c66 <__sfvwrite_r+0x19c>
   12d14:	85e2                	mv	a1,s8
   12d16:	864a                	mv	a2,s2
   12d18:	453020ef          	jal	ra,1596a <memmove>
   12d1c:	401c                	lw	a5,0(s0)
   12d1e:	85a2                	mv	a1,s0
   12d20:	8552                	mv	a0,s4
   12d22:	97ca                	add	a5,a5,s2
   12d24:	c01c                	sw	a5,0(s0)
   12d26:	f7aff0ef          	jal	ra,124a0 <_fflush_r>
   12d2a:	d53d                	beqz	a0,12c98 <__sfvwrite_r+0x1ce>
   12d2c:	bf45                	j	12cdc <__sfvwrite_r+0x212>
   12d2e:	4814                	lw	a3,16(s0)
   12d30:	02f6e863          	bltu	a3,a5,12d60 <__sfvwrite_r+0x296>
   12d34:	4850                	lw	a2,20(s0)
   12d36:	02c9e563          	bltu	s3,a2,12d60 <__sfvwrite_r+0x296>
   12d3a:	87ce                	mv	a5,s3
   12d3c:	013af363          	bgeu	s5,s3,12d42 <__sfvwrite_r+0x278>
   12d40:	87d6                	mv	a5,s5
   12d42:	02c7e6b3          	rem	a3,a5,a2
   12d46:	5058                	lw	a4,36(s0)
   12d48:	4c4c                	lw	a1,28(s0)
   12d4a:	865e                	mv	a2,s7
   12d4c:	8552                	mv	a0,s4
   12d4e:	40d786b3          	sub	a3,a5,a3
   12d52:	9702                	jalr	a4
   12d54:	892a                	mv	s2,a0
   12d56:	f8a053e3          	blez	a0,12cdc <__sfvwrite_r+0x212>
   12d5a:	412989b3          	sub	s3,s3,s2
   12d5e:	b5f9                	j	12c2c <__sfvwrite_r+0x162>
   12d60:	893a                	mv	s2,a4
   12d62:	00e9f363          	bgeu	s3,a4,12d68 <__sfvwrite_r+0x29e>
   12d66:	894e                	mv	s2,s3
   12d68:	853e                	mv	a0,a5
   12d6a:	864a                	mv	a2,s2
   12d6c:	85de                	mv	a1,s7
   12d6e:	3fd020ef          	jal	ra,1596a <memmove>
   12d72:	4418                	lw	a4,8(s0)
   12d74:	401c                	lw	a5,0(s0)
   12d76:	41270733          	sub	a4,a4,s2
   12d7a:	97ca                	add	a5,a5,s2
   12d7c:	c418                	sw	a4,8(s0)
   12d7e:	c01c                	sw	a5,0(s0)
   12d80:	ff69                	bnez	a4,12d5a <__sfvwrite_r+0x290>
   12d82:	85a2                	mv	a1,s0
   12d84:	8552                	mv	a0,s4
   12d86:	f1aff0ef          	jal	ra,124a0 <_fflush_r>
   12d8a:	f929                	bnez	a0,12cdc <__sfvwrite_r+0x212>
   12d8c:	412989b3          	sub	s3,s3,s2
   12d90:	bd71                	j	12c2c <__sfvwrite_r+0x162>
   12d92:	8c4e                	mv	s8,s3
   12d94:	8cce                	mv	s9,s3
   12d96:	bdb5                	j	12c12 <__sfvwrite_r+0x148>
   12d98:	865e                	mv	a2,s7
   12d9a:	85e2                	mv	a1,s8
   12d9c:	3cf020ef          	jal	ra,1596a <memmove>
   12da0:	4418                	lw	a4,8(s0)
   12da2:	401c                	lw	a5,0(s0)
   12da4:	895e                	mv	s2,s7
   12da6:	41770733          	sub	a4,a4,s7
   12daa:	97de                	add	a5,a5,s7
   12dac:	c418                	sw	a4,8(s0)
   12dae:	c01c                	sw	a5,0(s0)
   12db0:	b5e5                	j	12c98 <__sfvwrite_r+0x1ce>
   12db2:	8552                	mv	a0,s4
   12db4:	073030ef          	jal	ra,16626 <_realloc_r>
   12db8:	8caa                	mv	s9,a0
   12dba:	e40510e3          	bnez	a0,12bfa <__sfvwrite_r+0x130>
   12dbe:	480c                	lw	a1,16(s0)
   12dc0:	8552                	mv	a0,s4
   12dc2:	34e5                	jal	128aa <_free_r>
   12dc4:	00c41783          	lh	a5,12(s0)
   12dc8:	4731                	li	a4,12
   12dca:	00ea2023          	sw	a4,0(s4)
   12dce:	f7f7f793          	andi	a5,a5,-129
   12dd2:	b739                	j	12ce0 <__sfvwrite_r+0x216>
   12dd4:	00198793          	addi	a5,s3,1
   12dd8:	8abe                	mv	s5,a5
   12dda:	b579                	j	12c68 <__sfvwrite_r+0x19e>
   12ddc:	4731                	li	a4,12
   12dde:	00c41783          	lh	a5,12(s0)
   12de2:	00ea2023          	sw	a4,0(s4)
   12de6:	bded                	j	12ce0 <__sfvwrite_r+0x216>

00012de8 <_fwalk>:
   12de8:	1101                	addi	sp,sp,-32
   12dea:	c84a                	sw	s2,16(sp)
   12dec:	c64e                	sw	s3,12(sp)
   12dee:	c452                	sw	s4,8(sp)
   12df0:	c256                	sw	s5,4(sp)
   12df2:	c05a                	sw	s6,0(sp)
   12df4:	ce06                	sw	ra,28(sp)
   12df6:	cc22                	sw	s0,24(sp)
   12df8:	ca26                	sw	s1,20(sp)
   12dfa:	8b2e                	mv	s6,a1
   12dfc:	2e050a93          	addi	s5,a0,736
   12e00:	4a01                	li	s4,0
   12e02:	4985                	li	s3,1
   12e04:	597d                	li	s2,-1
   12e06:	004aa483          	lw	s1,4(s5) # 80000004 <__BSS_END__+0x7ffe01cc>
   12e0a:	008aa403          	lw	s0,8(s5)
   12e0e:	14fd                	addi	s1,s1,-1
   12e10:	0204c363          	bltz	s1,12e36 <_fwalk+0x4e>
   12e14:	00c45783          	lhu	a5,12(s0)
   12e18:	14fd                	addi	s1,s1,-1
   12e1a:	00f9fa63          	bgeu	s3,a5,12e2e <_fwalk+0x46>
   12e1e:	00e41783          	lh	a5,14(s0)
   12e22:	8522                	mv	a0,s0
   12e24:	01278563          	beq	a5,s2,12e2e <_fwalk+0x46>
   12e28:	9b02                	jalr	s6
   12e2a:	00aa6a33          	or	s4,s4,a0
   12e2e:	06840413          	addi	s0,s0,104
   12e32:	ff2491e3          	bne	s1,s2,12e14 <_fwalk+0x2c>
   12e36:	000aaa83          	lw	s5,0(s5)
   12e3a:	fc0a96e3          	bnez	s5,12e06 <_fwalk+0x1e>
   12e3e:	40f2                	lw	ra,28(sp)
   12e40:	4462                	lw	s0,24(sp)
   12e42:	44d2                	lw	s1,20(sp)
   12e44:	4942                	lw	s2,16(sp)
   12e46:	49b2                	lw	s3,12(sp)
   12e48:	4a92                	lw	s5,4(sp)
   12e4a:	4b02                	lw	s6,0(sp)
   12e4c:	8552                	mv	a0,s4
   12e4e:	4a22                	lw	s4,8(sp)
   12e50:	6105                	addi	sp,sp,32
   12e52:	8082                	ret

00012e54 <_fwalk_reent>:
   12e54:	7179                	addi	sp,sp,-48
   12e56:	d04a                	sw	s2,32(sp)
   12e58:	ce4e                	sw	s3,28(sp)
   12e5a:	cc52                	sw	s4,24(sp)
   12e5c:	ca56                	sw	s5,20(sp)
   12e5e:	c85a                	sw	s6,16(sp)
   12e60:	c65e                	sw	s7,12(sp)
   12e62:	d606                	sw	ra,44(sp)
   12e64:	d422                	sw	s0,40(sp)
   12e66:	d226                	sw	s1,36(sp)
   12e68:	8aaa                	mv	s5,a0
   12e6a:	8bae                	mv	s7,a1
   12e6c:	2e050b13          	addi	s6,a0,736
   12e70:	4a01                	li	s4,0
   12e72:	4985                	li	s3,1
   12e74:	597d                	li	s2,-1
   12e76:	004b2483          	lw	s1,4(s6)
   12e7a:	008b2403          	lw	s0,8(s6)
   12e7e:	14fd                	addi	s1,s1,-1
   12e80:	0204c463          	bltz	s1,12ea8 <_fwalk_reent+0x54>
   12e84:	00c45783          	lhu	a5,12(s0)
   12e88:	14fd                	addi	s1,s1,-1
   12e8a:	00f9fb63          	bgeu	s3,a5,12ea0 <_fwalk_reent+0x4c>
   12e8e:	00e41783          	lh	a5,14(s0)
   12e92:	85a2                	mv	a1,s0
   12e94:	8556                	mv	a0,s5
   12e96:	01278563          	beq	a5,s2,12ea0 <_fwalk_reent+0x4c>
   12e9a:	9b82                	jalr	s7
   12e9c:	00aa6a33          	or	s4,s4,a0
   12ea0:	06840413          	addi	s0,s0,104
   12ea4:	ff2490e3          	bne	s1,s2,12e84 <_fwalk_reent+0x30>
   12ea8:	000b2b03          	lw	s6,0(s6)
   12eac:	fc0b15e3          	bnez	s6,12e76 <_fwalk_reent+0x22>
   12eb0:	50b2                	lw	ra,44(sp)
   12eb2:	5422                	lw	s0,40(sp)
   12eb4:	5492                	lw	s1,36(sp)
   12eb6:	5902                	lw	s2,32(sp)
   12eb8:	49f2                	lw	s3,28(sp)
   12eba:	4ad2                	lw	s5,20(sp)
   12ebc:	4b42                	lw	s6,16(sp)
   12ebe:	4bb2                	lw	s7,12(sp)
   12ec0:	8552                	mv	a0,s4
   12ec2:	4a62                	lw	s4,24(sp)
   12ec4:	6145                	addi	sp,sp,48
   12ec6:	8082                	ret

00012ec8 <eshdn1>:
   12ec8:	00450693          	addi	a3,a0,4
   12ecc:	4701                	li	a4,0
   12ece:	0569                	addi	a0,a0,26
   12ed0:	7861                	lui	a6,0xffff8
   12ed2:	0006d783          	lhu	a5,0(a3)
   12ed6:	0017f613          	andi	a2,a5,1
   12eda:	c219                	beqz	a2,12ee0 <eshdn1+0x18>
   12edc:	00176713          	ori	a4,a4,1
   12ee0:	00277613          	andi	a2,a4,2
   12ee4:	8385                	srli	a5,a5,0x1
   12ee6:	0706                	slli	a4,a4,0x1
   12ee8:	0107e5b3          	or	a1,a5,a6
   12eec:	c601                	beqz	a2,12ef4 <eshdn1+0x2c>
   12eee:	01059793          	slli	a5,a1,0x10
   12ef2:	83c1                	srli	a5,a5,0x10
   12ef4:	00f69023          	sh	a5,0(a3)
   12ef8:	0742                	slli	a4,a4,0x10
   12efa:	0689                	addi	a3,a3,2
   12efc:	8341                	srli	a4,a4,0x10
   12efe:	fcd51ae3          	bne	a0,a3,12ed2 <eshdn1+0xa>
   12f02:	8082                	ret

00012f04 <eshup1>:
   12f04:	01850693          	addi	a3,a0,24
   12f08:	4701                	li	a4,0
   12f0a:	0509                	addi	a0,a0,2
   12f0c:	0006d783          	lhu	a5,0(a3)
   12f10:	01079613          	slli	a2,a5,0x10
   12f14:	8641                	srai	a2,a2,0x10
   12f16:	0786                	slli	a5,a5,0x1
   12f18:	00065463          	bgez	a2,12f20 <eshup1+0x1c>
   12f1c:	00176713          	ori	a4,a4,1
   12f20:	00277613          	andi	a2,a4,2
   12f24:	07c2                	slli	a5,a5,0x10
   12f26:	0706                	slli	a4,a4,0x1
   12f28:	83c1                	srli	a5,a5,0x10
   12f2a:	c219                	beqz	a2,12f30 <eshup1+0x2c>
   12f2c:	0017e793          	ori	a5,a5,1
   12f30:	00f69023          	sh	a5,0(a3)
   12f34:	0742                	slli	a4,a4,0x10
   12f36:	16f9                	addi	a3,a3,-2
   12f38:	8341                	srli	a4,a4,0x10
   12f3a:	fcd519e3          	bne	a0,a3,12f0c <eshup1+0x8>
   12f3e:	8082                	ret

00012f40 <m16m>:
   12f40:	1101                	addi	sp,sp,-32
   12f42:	6e41                	lui	t3,0x10
   12f44:	00011d23          	sh	zero,26(sp)
   12f48:	00011e23          	sh	zero,28(sp)
   12f4c:	05e1                	addi	a1,a1,24
   12f4e:	087c                	addi	a5,sp,28
   12f50:	00810813          	addi	a6,sp,8
   12f54:	1e7d                	addi	t3,t3,-1 # ffff <exit-0xa1>
   12f56:	0005d703          	lhu	a4,0(a1)
   12f5a:	17f9                	addi	a5,a5,-2
   12f5c:	15f9                	addi	a1,a1,-2
   12f5e:	c705                	beqz	a4,12f86 <m16m+0x46>
   12f60:	02a70733          	mul	a4,a4,a0
   12f64:	0027d883          	lhu	a7,2(a5)
   12f68:	0007d303          	lhu	t1,0(a5)
   12f6c:	01c776b3          	and	a3,a4,t3
   12f70:	96c6                	add	a3,a3,a7
   12f72:	8341                	srli	a4,a4,0x10
   12f74:	0106d893          	srli	a7,a3,0x10
   12f78:	971a                	add	a4,a4,t1
   12f7a:	9746                	add	a4,a4,a7
   12f7c:	00e79023          	sh	a4,0(a5)
   12f80:	00d79123          	sh	a3,2(a5)
   12f84:	8341                	srli	a4,a4,0x10
   12f86:	fee79f23          	sh	a4,-2(a5)
   12f8a:	fd0796e3          	bne	a5,a6,12f56 <m16m+0x16>
   12f8e:	0611                	addi	a2,a2,4
   12f90:	01e10693          	addi	a3,sp,30
   12f94:	0007d703          	lhu	a4,0(a5)
   12f98:	0789                	addi	a5,a5,2
   12f9a:	0609                	addi	a2,a2,2
   12f9c:	fee61f23          	sh	a4,-2(a2)
   12fa0:	fed79ae3          	bne	a5,a3,12f94 <m16m+0x54>
   12fa4:	6105                	addi	sp,sp,32
   12fa6:	8082                	ret

00012fa8 <emovo.constprop.0>:
   12fa8:	00055703          	lhu	a4,0(a0)
   12fac:	00255783          	lhu	a5,2(a0)
   12fb0:	c319                	beqz	a4,12fb6 <emovo.constprop.0+0xe>
   12fb2:	6721                	lui	a4,0x8
   12fb4:	8fd9                	or	a5,a5,a4
   12fb6:	00f59923          	sh	a5,18(a1)
   12fba:	00255703          	lhu	a4,2(a0)
   12fbe:	67a1                	lui	a5,0x8
   12fc0:	17fd                	addi	a5,a5,-1 # 7fff <exit-0x80a1>
   12fc2:	00f70f63          	beq	a4,a5,12fe0 <emovo.constprop.0+0x38>
   12fc6:	00650793          	addi	a5,a0,6
   12fca:	05c1                	addi	a1,a1,16
   12fcc:	0561                	addi	a0,a0,24
   12fce:	0007d703          	lhu	a4,0(a5)
   12fd2:	0789                	addi	a5,a5,2
   12fd4:	15f9                	addi	a1,a1,-2
   12fd6:	00e59123          	sh	a4,2(a1)
   12fda:	fea79ae3          	bne	a5,a0,12fce <emovo.constprop.0+0x26>
   12fde:	8082                	ret
   12fe0:	00650793          	addi	a5,a0,6
   12fe4:	0569                	addi	a0,a0,26
   12fe6:	0007d703          	lhu	a4,0(a5)
   12fea:	0789                	addi	a5,a5,2
   12fec:	e31d                	bnez	a4,13012 <emovo.constprop.0+0x6a>
   12fee:	fef51ce3          	bne	a0,a5,12fe6 <emovo.constprop.0+0x3e>
   12ff2:	01258713          	addi	a4,a1,18
   12ff6:	87ae                	mv	a5,a1
   12ff8:	0789                	addi	a5,a5,2
   12ffa:	fe079f23          	sh	zero,-2(a5)
   12ffe:	fee79de3          	bne	a5,a4,12ff8 <emovo.constprop.0+0x50>
   13002:	0125d783          	lhu	a5,18(a1)
   13006:	6721                	lui	a4,0x8
   13008:	177d                	addi	a4,a4,-1 # 7fff <exit-0x80a1>
   1300a:	8fd9                	or	a5,a5,a4
   1300c:	00f59923          	sh	a5,18(a1)
   13010:	8082                	ret
   13012:	01058713          	addi	a4,a1,16
   13016:	87ae                	mv	a5,a1
   13018:	0789                	addi	a5,a5,2
   1301a:	fe079f23          	sh	zero,-2(a5)
   1301e:	fee79de3          	bne	a5,a4,13018 <emovo.constprop.0+0x70>
   13022:	77f1                	lui	a5,0xffffc
   13024:	00f59823          	sh	a5,16(a1)
   13028:	77e1                	lui	a5,0xffff8
   1302a:	fff7c793          	not	a5,a5
   1302e:	00f59923          	sh	a5,18(a1)
   13032:	8082                	ret

00013034 <enormlz>:
   13034:	00455783          	lhu	a5,4(a0)
   13038:	1141                	addi	sp,sp,-16
   1303a:	c226                	sw	s1,4(sp)
   1303c:	c606                	sw	ra,12(sp)
   1303e:	c422                	sw	s0,8(sp)
   13040:	c04a                	sw	s2,0(sp)
   13042:	84aa                	mv	s1,a0
   13044:	e3cd                	bnez	a5,130e6 <enormlz+0xb2>
   13046:	00655783          	lhu	a5,6(a0)
   1304a:	4401                	li	s0,0
   1304c:	01079713          	slli	a4,a5,0x10
   13050:	8741                	srai	a4,a4,0x10
   13052:	08074363          	bltz	a4,130d8 <enormlz+0xa4>
   13056:	01850693          	addi	a3,a0,24
   1305a:	0a000613          	li	a2,160
   1305e:	e395                	bnez	a5,13082 <enormlz+0x4e>
   13060:	00448793          	addi	a5,s1,4
   13064:	0027d703          	lhu	a4,2(a5) # ffff8002 <__BSS_END__+0xfffd81ca>
   13068:	0789                	addi	a5,a5,2
   1306a:	fee79f23          	sh	a4,-2(a5)
   1306e:	fed79be3          	bne	a5,a3,13064 <enormlz+0x30>
   13072:	00049c23          	sh	zero,24(s1)
   13076:	0441                	addi	s0,s0,16
   13078:	06c40063          	beq	s0,a2,130d8 <enormlz+0xa4>
   1307c:	0064d783          	lhu	a5,6(s1)
   13080:	d3e5                	beqz	a5,13060 <enormlz+0x2c>
   13082:	0ff00713          	li	a4,255
   13086:	02f76b63          	bltu	a4,a5,130bc <enormlz+0x88>
   1308a:	01848813          	addi	a6,s1,24
   1308e:	00248593          	addi	a1,s1,2
   13092:	0ff00513          	li	a0,255
   13096:	4781                	li	a5,0
   13098:	8742                	mv	a4,a6
   1309a:	00075683          	lhu	a3,0(a4)
   1309e:	1779                	addi	a4,a4,-2
   130a0:	00869613          	slli	a2,a3,0x8
   130a4:	8fd1                	or	a5,a5,a2
   130a6:	00f71123          	sh	a5,2(a4)
   130aa:	0086d793          	srli	a5,a3,0x8
   130ae:	feb716e3          	bne	a4,a1,1309a <enormlz+0x66>
   130b2:	0064d783          	lhu	a5,6(s1)
   130b6:	0421                	addi	s0,s0,8
   130b8:	fcf57fe3          	bgeu	a0,a5,13096 <enormlz+0x62>
   130bc:	0a000913          	li	s2,160
   130c0:	a039                	j	130ce <enormlz+0x9a>
   130c2:	0405                	addi	s0,s0,1
   130c4:	3581                	jal	12f04 <eshup1>
   130c6:	00894963          	blt	s2,s0,130d8 <enormlz+0xa4>
   130ca:	0064d783          	lhu	a5,6(s1)
   130ce:	07c2                	slli	a5,a5,0x10
   130d0:	87c1                	srai	a5,a5,0x10
   130d2:	8526                	mv	a0,s1
   130d4:	fe07d7e3          	bgez	a5,130c2 <enormlz+0x8e>
   130d8:	40b2                	lw	ra,12(sp)
   130da:	8522                	mv	a0,s0
   130dc:	4422                	lw	s0,8(sp)
   130de:	4492                	lw	s1,4(sp)
   130e0:	4902                	lw	s2,0(sp)
   130e2:	0141                	addi	sp,sp,16
   130e4:	8082                	ret
   130e6:	0ff00713          	li	a4,255
   130ea:	4401                	li	s0,0
   130ec:	02f76463          	bltu	a4,a5,13114 <enormlz+0xe0>
   130f0:	f6f00913          	li	s2,-145
   130f4:	a039                	j	13102 <enormlz+0xce>
   130f6:	147d                	addi	s0,s0,-1
   130f8:	3bc1                	jal	12ec8 <eshdn1>
   130fa:	fd240fe3          	beq	s0,s2,130d8 <enormlz+0xa4>
   130fe:	0044d783          	lhu	a5,4(s1)
   13102:	8526                	mv	a0,s1
   13104:	fbed                	bnez	a5,130f6 <enormlz+0xc2>
   13106:	40b2                	lw	ra,12(sp)
   13108:	8522                	mv	a0,s0
   1310a:	4422                	lw	s0,8(sp)
   1310c:	4492                	lw	s1,4(sp)
   1310e:	4902                	lw	s2,0(sp)
   13110:	0141                	addi	sp,sp,16
   13112:	8082                	ret
   13114:	00450713          	addi	a4,a0,4
   13118:	01a50593          	addi	a1,a0,26
   1311c:	4781                	li	a5,0
   1311e:	00075683          	lhu	a3,0(a4)
   13122:	0709                	addi	a4,a4,2
   13124:	0086d613          	srli	a2,a3,0x8
   13128:	8fd1                	or	a5,a5,a2
   1312a:	06a2                	slli	a3,a3,0x8
   1312c:	fef71f23          	sh	a5,-2(a4)
   13130:	01069793          	slli	a5,a3,0x10
   13134:	83c1                	srli	a5,a5,0x10
   13136:	feb714e3          	bne	a4,a1,1311e <enormlz+0xea>
   1313a:	0044d783          	lhu	a5,4(s1)
   1313e:	5461                	li	s0,-8
   13140:	bf45                	j	130f0 <enormlz+0xbc>

00013142 <eshift.part.0>:
   13142:	1101                	addi	sp,sp,-32
   13144:	cc22                	sw	s0,24(sp)
   13146:	ca26                	sw	s1,20(sp)
   13148:	ce06                	sw	ra,28(sp)
   1314a:	c84a                	sw	s2,16(sp)
   1314c:	c64e                	sw	s3,12(sp)
   1314e:	84ae                	mv	s1,a1
   13150:	842a                	mv	s0,a0
   13152:	0605ca63          	bltz	a1,131c6 <eshift.part.0+0x84>
   13156:	47bd                	li	a5,15
   13158:	862e                	mv	a2,a1
   1315a:	0511                	addi	a0,a0,4
   1315c:	01840693          	addi	a3,s0,24
   13160:	45bd                	li	a1,15
   13162:	0297d063          	bge	a5,s1,13182 <eshift.part.0+0x40>
   13166:	87aa                	mv	a5,a0
   13168:	0027d703          	lhu	a4,2(a5)
   1316c:	0789                	addi	a5,a5,2
   1316e:	fee79f23          	sh	a4,-2(a5)
   13172:	fef69be3          	bne	a3,a5,13168 <eshift.part.0+0x26>
   13176:	00041c23          	sh	zero,24(s0)
   1317a:	1641                	addi	a2,a2,-16
   1317c:	fec5c5e3          	blt	a1,a2,13166 <eshift.part.0+0x24>
   13180:	88bd                	andi	s1,s1,15
   13182:	479d                	li	a5,7
   13184:	0297d463          	bge	a5,s1,131ac <eshift.part.0+0x6a>
   13188:	01840713          	addi	a4,s0,24
   1318c:	00240593          	addi	a1,s0,2
   13190:	4781                	li	a5,0
   13192:	00075683          	lhu	a3,0(a4)
   13196:	1779                	addi	a4,a4,-2
   13198:	00869613          	slli	a2,a3,0x8
   1319c:	8fd1                	or	a5,a5,a2
   1319e:	00f71123          	sh	a5,2(a4)
   131a2:	0086d793          	srli	a5,a3,0x8
   131a6:	feb716e3          	bne	a4,a1,13192 <eshift.part.0+0x50>
   131aa:	14e1                	addi	s1,s1,-8
   131ac:	c489                	beqz	s1,131b6 <eshift.part.0+0x74>
   131ae:	14fd                	addi	s1,s1,-1
   131b0:	8522                	mv	a0,s0
   131b2:	3b89                	jal	12f04 <eshup1>
   131b4:	fced                	bnez	s1,131ae <eshift.part.0+0x6c>
   131b6:	40f2                	lw	ra,28(sp)
   131b8:	4462                	lw	s0,24(sp)
   131ba:	44d2                	lw	s1,20(sp)
   131bc:	4942                	lw	s2,16(sp)
   131be:	49b2                	lw	s3,12(sp)
   131c0:	4501                	li	a0,0
   131c2:	6105                	addi	sp,sp,32
   131c4:	8082                	ret
   131c6:	57c5                	li	a5,-15
   131c8:	40b00933          	neg	s2,a1
   131cc:	4981                	li	s3,0
   131ce:	01850593          	addi	a1,a0,24
   131d2:	00450693          	addi	a3,a0,4
   131d6:	463d                	li	a2,15
   131d8:	08f4de63          	bge	s1,a5,13274 <eshift.part.0+0x132>
   131dc:	01845703          	lhu	a4,24(s0)
   131e0:	87ae                	mv	a5,a1
   131e2:	00e9e9b3          	or	s3,s3,a4
   131e6:	ffe7d703          	lhu	a4,-2(a5)
   131ea:	17f9                	addi	a5,a5,-2
   131ec:	00e79123          	sh	a4,2(a5)
   131f0:	fed79be3          	bne	a5,a3,131e6 <eshift.part.0+0xa4>
   131f4:	00041223          	sh	zero,4(s0)
   131f8:	1941                	addi	s2,s2,-16
   131fa:	ff2641e3          	blt	a2,s2,131dc <eshift.part.0+0x9a>
   131fe:	5941                	li	s2,-16
   13200:	5745                	li	a4,-15
   13202:	40990933          	sub	s2,s2,s1
   13206:	4781                	li	a5,0
   13208:	06e4c163          	blt	s1,a4,1326a <eshift.part.0+0x128>
   1320c:	993e                	add	s2,s2,a5
   1320e:	479d                	li	a5,7
   13210:	0327d863          	bge	a5,s2,13240 <eshift.part.0+0xfe>
   13214:	01844783          	lbu	a5,24(s0)
   13218:	01a40593          	addi	a1,s0,26
   1321c:	00f9e9b3          	or	s3,s3,a5
   13220:	4781                	li	a5,0
   13222:	0006d703          	lhu	a4,0(a3)
   13226:	0689                	addi	a3,a3,2
   13228:	00875613          	srli	a2,a4,0x8
   1322c:	8fd1                	or	a5,a5,a2
   1322e:	0722                	slli	a4,a4,0x8
   13230:	fef69f23          	sh	a5,-2(a3)
   13234:	01071793          	slli	a5,a4,0x10
   13238:	83c1                	srli	a5,a5,0x10
   1323a:	feb694e3          	bne	a3,a1,13222 <eshift.part.0+0xe0>
   1323e:	1961                	addi	s2,s2,-8
   13240:	00090c63          	beqz	s2,13258 <eshift.part.0+0x116>
   13244:	01845783          	lhu	a5,24(s0)
   13248:	197d                	addi	s2,s2,-1
   1324a:	8522                	mv	a0,s0
   1324c:	8b85                	andi	a5,a5,1
   1324e:	00f9e9b3          	or	s3,s3,a5
   13252:	399d                	jal	12ec8 <eshdn1>
   13254:	fe0918e3          	bnez	s2,13244 <eshift.part.0+0x102>
   13258:	40f2                	lw	ra,28(sp)
   1325a:	4462                	lw	s0,24(sp)
   1325c:	44d2                	lw	s1,20(sp)
   1325e:	4942                	lw	s2,16(sp)
   13260:	01303533          	snez	a0,s3
   13264:	49b2                	lw	s3,12(sp)
   13266:	6105                	addi	sp,sp,32
   13268:	8082                	ret
   1326a:	ff097793          	andi	a5,s2,-16
   1326e:	40f007b3          	neg	a5,a5
   13272:	bf69                	j	1320c <eshift.part.0+0xca>
   13274:	57e5                	li	a5,-7
   13276:	f8f4cfe3          	blt	s1,a5,13214 <eshift.part.0+0xd2>
   1327a:	b7e9                	j	13244 <eshift.part.0+0x102>

0001327c <emovi>:
   1327c:	01255783          	lhu	a5,18(a0)
   13280:	66a1                	lui	a3,0x8
   13282:	16fd                	addi	a3,a3,-1 # 7fff <exit-0x80a1>
   13284:	83bd                	srli	a5,a5,0xf
   13286:	40f007b3          	neg	a5,a5
   1328a:	00f59023          	sh	a5,0(a1)
   1328e:	01255703          	lhu	a4,18(a0)
   13292:	01050793          	addi	a5,a0,16
   13296:	8f75                	and	a4,a4,a3
   13298:	00e59123          	sh	a4,2(a1)
   1329c:	02d70263          	beq	a4,a3,132c0 <emovi+0x44>
   132a0:	00658713          	addi	a4,a1,6
   132a4:	00059223          	sh	zero,4(a1)
   132a8:	1579                	addi	a0,a0,-2
   132aa:	0007d683          	lhu	a3,0(a5)
   132ae:	17f9                	addi	a5,a5,-2
   132b0:	0709                	addi	a4,a4,2
   132b2:	fed71f23          	sh	a3,-2(a4)
   132b6:	fea79ae3          	bne	a5,a0,132aa <emovi+0x2e>
   132ba:	00059c23          	sh	zero,24(a1)
   132be:	8082                	ret
   132c0:	01255683          	lhu	a3,18(a0)
   132c4:	8ef9                	and	a3,a3,a4
   132c6:	00e69b63          	bne	a3,a4,132dc <emovi+0x60>
   132ca:	01250613          	addi	a2,a0,18
   132ce:	872a                	mv	a4,a0
   132d0:	00075683          	lhu	a3,0(a4)
   132d4:	0709                	addi	a4,a4,2
   132d6:	ee81                	bnez	a3,132ee <emovi+0x72>
   132d8:	fec71ce3          	bne	a4,a2,132d0 <emovi+0x54>
   132dc:	00458793          	addi	a5,a1,4
   132e0:	05e9                	addi	a1,a1,26
   132e2:	0789                	addi	a5,a5,2
   132e4:	fe079f23          	sh	zero,-2(a5)
   132e8:	feb79de3          	bne	a5,a1,132e2 <emovi+0x66>
   132ec:	8082                	ret
   132ee:	00658713          	addi	a4,a1,6
   132f2:	00059223          	sh	zero,4(a1)
   132f6:	1571                	addi	a0,a0,-4
   132f8:	0007d683          	lhu	a3,0(a5)
   132fc:	17f9                	addi	a5,a5,-2
   132fe:	0709                	addi	a4,a4,2
   13300:	fed71f23          	sh	a3,-2(a4)
   13304:	fef51ae3          	bne	a0,a5,132f8 <emovi+0x7c>
   13308:	8082                	ret

0001330a <ecmp>:
   1330a:	01255783          	lhu	a5,18(a0)
   1330e:	715d                	addi	sp,sp,-80
   13310:	c4a2                	sw	s0,72(sp)
   13312:	fff7c793          	not	a5,a5
   13316:	c686                	sw	ra,76(sp)
   13318:	01179713          	slli	a4,a5,0x11
   1331c:	842e                	mv	s0,a1
   1331e:	eb11                	bnez	a4,13332 <ecmp+0x28>
   13320:	01250693          	addi	a3,a0,18
   13324:	87aa                	mv	a5,a0
   13326:	0007d703          	lhu	a4,0(a5)
   1332a:	0789                	addi	a5,a5,2
   1332c:	e735                	bnez	a4,13398 <ecmp+0x8e>
   1332e:	fed79ce3          	bne	a5,a3,13326 <ecmp+0x1c>
   13332:	01245783          	lhu	a5,18(s0)
   13336:	fff7c793          	not	a5,a5
   1333a:	01179713          	slli	a4,a5,0x11
   1333e:	c321                	beqz	a4,1337e <ecmp+0x74>
   13340:	002c                	addi	a1,sp,8
   13342:	3f2d                	jal	1327c <emovi>
   13344:	104c                	addi	a1,sp,36
   13346:	8522                	mv	a0,s0
   13348:	3f15                	jal	1327c <emovi>
   1334a:	00815583          	lhu	a1,8(sp)
   1334e:	02415503          	lhu	a0,36(sp)
   13352:	04b50863          	beq	a0,a1,133a2 <ecmp+0x98>
   13356:	00a10793          	addi	a5,sp,10
   1335a:	02610713          	addi	a4,sp,38
   1335e:	1010                	addi	a2,sp,32
   13360:	0007d683          	lhu	a3,0(a5)
   13364:	0789                	addi	a5,a5,2
   13366:	eeb5                	bnez	a3,133e2 <ecmp+0xd8>
   13368:	00075683          	lhu	a3,0(a4)
   1336c:	0709                	addi	a4,a4,2
   1336e:	eab5                	bnez	a3,133e2 <ecmp+0xd8>
   13370:	fef618e3          	bne	a2,a5,13360 <ecmp+0x56>
   13374:	4501                	li	a0,0
   13376:	40b6                	lw	ra,76(sp)
   13378:	4426                	lw	s0,72(sp)
   1337a:	6161                	addi	sp,sp,80
   1337c:	8082                	ret
   1337e:	87a2                	mv	a5,s0
   13380:	0007d703          	lhu	a4,0(a5)
   13384:	01240693          	addi	a3,s0,18
   13388:	0789                	addi	a5,a5,2
   1338a:	e719                	bnez	a4,13398 <ecmp+0x8e>
   1338c:	fad78ae3          	beq	a5,a3,13340 <ecmp+0x36>
   13390:	0007d703          	lhu	a4,0(a5)
   13394:	0789                	addi	a5,a5,2
   13396:	db7d                	beqz	a4,1338c <ecmp+0x82>
   13398:	40b6                	lw	ra,76(sp)
   1339a:	4426                	lw	s0,72(sp)
   1339c:	5579                	li	a0,-2
   1339e:	6161                	addi	sp,sp,80
   133a0:	8082                	ret
   133a2:	00815603          	lhu	a2,8(sp)
   133a6:	02415683          	lhu	a3,36(sp)
   133aa:	00a03533          	snez	a0,a0
   133ae:	1058                	addi	a4,sp,36
   133b0:	003c                	addi	a5,sp,8
   133b2:	40a00533          	neg	a0,a0
   133b6:	00156513          	ori	a0,a0,1
   133ba:	100c                	addi	a1,sp,32
   133bc:	0789                	addi	a5,a5,2
   133be:	0709                	addi	a4,a4,2
   133c0:	00d61c63          	bne	a2,a3,133d8 <ecmp+0xce>
   133c4:	fab788e3          	beq	a5,a1,13374 <ecmp+0x6a>
   133c8:	0007d603          	lhu	a2,0(a5)
   133cc:	00075683          	lhu	a3,0(a4)
   133d0:	0789                	addi	a5,a5,2
   133d2:	0709                	addi	a4,a4,2
   133d4:	fed608e3          	beq	a2,a3,133c4 <ecmp+0xba>
   133d8:	f8c6efe3          	bltu	a3,a2,13376 <ecmp+0x6c>
   133dc:	40a00533          	neg	a0,a0
   133e0:	bf59                	j	13376 <ecmp+0x6c>
   133e2:	e591                	bnez	a1,133ee <ecmp+0xe4>
   133e4:	40b6                	lw	ra,76(sp)
   133e6:	4426                	lw	s0,72(sp)
   133e8:	4505                	li	a0,1
   133ea:	6161                	addi	sp,sp,80
   133ec:	8082                	ret
   133ee:	557d                	li	a0,-1
   133f0:	b759                	j	13376 <ecmp+0x6c>

000133f2 <emdnorm>:
   133f2:	1101                	addi	sp,sp,-32
   133f4:	cc22                	sw	s0,24(sp)
   133f6:	ca26                	sw	s1,20(sp)
   133f8:	c84a                	sw	s2,16(sp)
   133fa:	c64e                	sw	s3,12(sp)
   133fc:	c452                	sw	s4,8(sp)
   133fe:	c256                	sw	s5,4(sp)
   13400:	8936                	mv	s2,a3
   13402:	843e                	mv	s0,a5
   13404:	ce06                	sw	ra,28(sp)
   13406:	84aa                	mv	s1,a0
   13408:	89ae                	mv	s3,a1
   1340a:	8a32                	mv	s4,a2
   1340c:	8aba                	mv	s5,a4
   1340e:	311d                	jal	13034 <enormlz>
   13410:	09000793          	li	a5,144
   13414:	40a90933          	sub	s2,s2,a0
   13418:	12a7d163          	bge	a5,a0,1353a <emdnorm+0x148>
   1341c:	67a1                	lui	a5,0x8
   1341e:	17f9                	addi	a5,a5,-2 # 7ffe <exit-0x80a2>
   13420:	2327d463          	bge	a5,s2,13648 <emdnorm+0x256>
   13424:	1a0a8563          	beqz	s5,135ce <emdnorm+0x1dc>
   13428:	00442a83          	lw	s5,4(s0)
   1342c:	401c                	lw	a5,0(s0)
   1342e:	1efa8a63          	beq	s5,a5,13622 <emdnorm+0x230>
   13432:	01a40713          	addi	a4,s0,26
   13436:	03440793          	addi	a5,s0,52
   1343a:	0709                	addi	a4,a4,2
   1343c:	fe071f23          	sh	zero,-2(a4)
   13440:	fee79de3          	bne	a5,a4,1343a <emdnorm+0x48>
   13444:	03800793          	li	a5,56
   13448:	2afa8563          	beq	s5,a5,136f2 <emdnorm+0x300>
   1344c:	1357df63          	bge	a5,s5,1358a <emdnorm+0x198>
   13450:	04000793          	li	a5,64
   13454:	20fa8363          	beq	s5,a5,1365a <emdnorm+0x268>
   13458:	07100793          	li	a5,113
   1345c:	2cfa9363          	bne	s5,a5,13722 <emdnorm+0x330>
   13460:	400087b7          	lui	a5,0x40008
   13464:	46a9                	li	a3,10
   13466:	7761                	lui	a4,0xffff8
   13468:	17fd                	addi	a5,a5,-1 # 40007fff <__BSS_END__+0x3ffe81c7>
   1346a:	c414                	sw	a3,8(s0)
   1346c:	c85c                	sw	a5,20(s0)
   1346e:	00e41c23          	sh	a4,24(s0)
   13472:	c454                	sw	a3,12(s0)
   13474:	02e41723          	sh	a4,46(s0)
   13478:	01542023          	sw	s5,0(s0)
   1347c:	19205b63          	blez	s2,13612 <emdnorm+0x220>
   13480:	0144d683          	lhu	a3,20(s1)
   13484:	01448613          	addi	a2,s1,20
   13488:	47ad                	li	a5,11
   1348a:	06c6                	slli	a3,a3,0x11
   1348c:	82c5                	srli	a3,a3,0x11
   1348e:	0786                	slli	a5,a5,0x1
   13490:	97a6                	add	a5,a5,s1
   13492:	01a48593          	addi	a1,s1,26
   13496:	0007d703          	lhu	a4,0(a5)
   1349a:	c319                	beqz	a4,134a0 <emdnorm+0xae>
   1349c:	0016e693          	ori	a3,a3,1
   134a0:	00079023          	sh	zero,0(a5)
   134a4:	0789                	addi	a5,a5,2
   134a6:	feb798e3          	bne	a5,a1,13496 <emdnorm+0xa4>
   134aa:	00065703          	lhu	a4,0(a2)
   134ae:	01445583          	lhu	a1,20(s0)
   134b2:	fff5c593          	not	a1,a1
   134b6:	8f6d                	and	a4,a4,a1
   134b8:	00e61023          	sh	a4,0(a2)
   134bc:	01645783          	lhu	a5,22(s0)
   134c0:	00d7f733          	and	a4,a5,a3
   134c4:	c721                	beqz	a4,1350c <emdnorm+0x11a>
   134c6:	00d79d63          	bne	a5,a3,134e0 <emdnorm+0xee>
   134ca:	22099163          	bnez	s3,136ec <emdnorm+0x2fa>
   134ce:	445c                	lw	a5,12(s0)
   134d0:	01845703          	lhu	a4,24(s0)
   134d4:	0786                	slli	a5,a5,0x1
   134d6:	97a6                	add	a5,a5,s1
   134d8:	0007d783          	lhu	a5,0(a5)
   134dc:	8ff9                	and	a5,a5,a4
   134de:	c79d                	beqz	a5,1350c <emdnorm+0x11a>
   134e0:	03240793          	addi	a5,s0,50
   134e4:	01848613          	addi	a2,s1,24
   134e8:	00248593          	addi	a1,s1,2
   134ec:	4501                	li	a0,0
   134ee:	0007d703          	lhu	a4,0(a5)
   134f2:	00065683          	lhu	a3,0(a2)
   134f6:	1679                	addi	a2,a2,-2
   134f8:	17f9                	addi	a5,a5,-2
   134fa:	9736                	add	a4,a4,a3
   134fc:	972a                	add	a4,a4,a0
   134fe:	01075513          	srli	a0,a4,0x10
   13502:	00e61123          	sh	a4,2(a2)
   13506:	8905                	andi	a0,a0,1
   13508:	fec593e3          	bne	a1,a2,134ee <emdnorm+0xfc>
   1350c:	1b205763          	blez	s2,136ba <emdnorm+0x2c8>
   13510:	0044d783          	lhu	a5,4(s1)
   13514:	18079863          	bnez	a5,136a4 <emdnorm+0x2b2>
   13518:	67a1                	lui	a5,0x8
   1351a:	00049c23          	sh	zero,24(s1)
   1351e:	17f9                	addi	a5,a5,-2 # 7ffe <exit-0x80a2>
   13520:	0b27c963          	blt	a5,s2,135d2 <emdnorm+0x1e0>
   13524:	01249123          	sh	s2,2(s1)
   13528:	40f2                	lw	ra,28(sp)
   1352a:	4462                	lw	s0,24(sp)
   1352c:	44d2                	lw	s1,20(sp)
   1352e:	4942                	lw	s2,16(sp)
   13530:	49b2                	lw	s3,12(sp)
   13532:	4a22                	lw	s4,8(sp)
   13534:	4a92                	lw	s5,4(sp)
   13536:	6105                	addi	sp,sp,32
   13538:	8082                	ret
   1353a:	02094b63          	bltz	s2,13570 <emdnorm+0x17e>
   1353e:	fc0a8de3          	beqz	s5,13518 <emdnorm+0x126>
   13542:	00442a83          	lw	s5,4(s0)
   13546:	401c                	lw	a5,0(s0)
   13548:	eefa95e3          	bne	s5,a5,13432 <emdnorm+0x40>
   1354c:	21204f63          	bgtz	s2,1376a <emdnorm+0x378>
   13550:	09000713          	li	a4,144
   13554:	20e79d63          	bne	a5,a4,1376e <emdnorm+0x37c>
   13558:	4410                	lw	a2,8(s0)
   1355a:	01445583          	lhu	a1,20(s0)
   1355e:	09000a93          	li	s5,144
   13562:	0606                	slli	a2,a2,0x1
   13564:	9626                	add	a2,a2,s1
   13566:	00065703          	lhu	a4,0(a2)
   1356a:	00b776b3          	and	a3,a4,a1
   1356e:	b791                	j	134b2 <emdnorm+0xc0>
   13570:	f7000793          	li	a5,-144
   13574:	10f95a63          	bge	s2,a5,13688 <emdnorm+0x296>
   13578:	00248793          	addi	a5,s1,2
   1357c:	04e9                	addi	s1,s1,26
   1357e:	0789                	addi	a5,a5,2
   13580:	fe079f23          	sh	zero,-2(a5)
   13584:	fef49de3          	bne	s1,a5,1357e <emdnorm+0x18c>
   13588:	b745                	j	13528 <emdnorm+0x136>
   1358a:	47e1                	li	a5,24
   1358c:	06fa8163          	beq	s5,a5,135ee <emdnorm+0x1fc>
   13590:	03500793          	li	a5,53
   13594:	18fa9763          	bne	s5,a5,13722 <emdnorm+0x330>
   13598:	6785                	lui	a5,0x1
   1359a:	04000737          	lui	a4,0x4000
   1359e:	4699                	li	a3,6
   135a0:	80078793          	addi	a5,a5,-2048 # 800 <exit-0xf8a0>
   135a4:	7ff70713          	addi	a4,a4,2047 # 40007ff <__BSS_END__+0x3fe09c7>
   135a8:	c414                	sw	a3,8(s0)
   135aa:	c858                	sw	a4,20(s0)
   135ac:	00f41c23          	sh	a5,24(s0)
   135b0:	c454                	sw	a3,12(s0)
   135b2:	02f41323          	sh	a5,38(s0)
   135b6:	01542023          	sw	s5,0(s0)
   135ba:	05205c63          	blez	s2,13612 <emdnorm+0x220>
   135be:	00c4d683          	lhu	a3,12(s1)
   135c2:	00c48613          	addi	a2,s1,12
   135c6:	479d                	li	a5,7
   135c8:	7ff6f693          	andi	a3,a3,2047
   135cc:	b5c9                	j	1348e <emdnorm+0x9c>
   135ce:	00049c23          	sh	zero,24(s1)
   135d2:	77e1                	lui	a5,0xffff8
   135d4:	fff7c793          	not	a5,a5
   135d8:	00f49123          	sh	a5,2(s1)
   135dc:	00448793          	addi	a5,s1,4
   135e0:	04e1                	addi	s1,s1,24
   135e2:	00079023          	sh	zero,0(a5) # ffff8000 <__BSS_END__+0xfffd81c8>
   135e6:	0789                	addi	a5,a5,2
   135e8:	fef49de3          	bne	s1,a5,135e2 <emdnorm+0x1f0>
   135ec:	bf35                	j	13528 <emdnorm+0x136>
   135ee:	008007b7          	lui	a5,0x800
   135f2:	4691                	li	a3,4
   135f4:	10000713          	li	a4,256
   135f8:	0ff78793          	addi	a5,a5,255 # 8000ff <__BSS_END__+0x7e02c7>
   135fc:	c414                	sw	a3,8(s0)
   135fe:	c85c                	sw	a5,20(s0)
   13600:	00e41c23          	sh	a4,24(s0)
   13604:	c454                	sw	a3,12(s0)
   13606:	02e41123          	sh	a4,34(s0)
   1360a:	01542023          	sw	s5,0(s0)
   1360e:	15204363          	bgtz	s2,13754 <emdnorm+0x362>
   13612:	0184d783          	lhu	a5,24(s1)
   13616:	8526                	mv	a0,s1
   13618:	8b85                	andi	a5,a5,1
   1361a:	00f9e9b3          	or	s3,s3,a5
   1361e:	8abff0ef          	jal	ra,12ec8 <eshdn1>
   13622:	441c                	lw	a5,8(s0)
   13624:	01445583          	lhu	a1,20(s0)
   13628:	08f00513          	li	a0,143
   1362c:	00179613          	slli	a2,a5,0x1
   13630:	9626                	add	a2,a2,s1
   13632:	00065703          	lhu	a4,0(a2)
   13636:	00b776b3          	and	a3,a4,a1
   1363a:	e7554ce3          	blt	a0,s5,134b2 <emdnorm+0xc0>
   1363e:	0785                	addi	a5,a5,1
   13640:	4531                	li	a0,12
   13642:	e4f556e3          	bge	a0,a5,1348e <emdnorm+0x9c>
   13646:	b5b5                	j	134b2 <emdnorm+0xc0>
   13648:	00248793          	addi	a5,s1,2
   1364c:	04e9                	addi	s1,s1,26
   1364e:	0789                	addi	a5,a5,2
   13650:	fe079f23          	sh	zero,-2(a5)
   13654:	fef49de3          	bne	s1,a5,1364e <emdnorm+0x25c>
   13658:	bdc1                	j	13528 <emdnorm+0x136>
   1365a:	479d                	li	a5,7
   1365c:	c41c                	sw	a5,8(s0)
   1365e:	800107b7          	lui	a5,0x80010
   13662:	17fd                	addi	a5,a5,-1 # 8000ffff <__BSS_END__+0x7fff01c7>
   13664:	4705                	li	a4,1
   13666:	c85c                	sw	a5,20(s0)
   13668:	4799                	li	a5,6
   1366a:	00e41c23          	sh	a4,24(s0)
   1366e:	c45c                	sw	a5,12(s0)
   13670:	02e41323          	sh	a4,38(s0)
   13674:	01542023          	sw	s5,0(s0)
   13678:	f9205de3          	blez	s2,13612 <emdnorm+0x220>
   1367c:	00e4d683          	lhu	a3,14(s1)
   13680:	00e48613          	addi	a2,s1,14
   13684:	47a1                	li	a5,8
   13686:	b521                	j	1348e <emdnorm+0x9c>
   13688:	85ca                	mv	a1,s2
   1368a:	8526                	mv	a0,s1
   1368c:	ab7ff0ef          	jal	ra,13142 <eshift.part.0>
   13690:	c955                	beqz	a0,13744 <emdnorm+0x352>
   13692:	0c0a8763          	beqz	s5,13760 <emdnorm+0x36e>
   13696:	00442a83          	lw	s5,4(s0)
   1369a:	401c                	lw	a5,0(s0)
   1369c:	4985                	li	s3,1
   1369e:	d8fa9ae3          	bne	s5,a5,13432 <emdnorm+0x40>
   136a2:	b57d                	j	13550 <emdnorm+0x15e>
   136a4:	8526                	mv	a0,s1
   136a6:	823ff0ef          	jal	ra,12ec8 <eshdn1>
   136aa:	67a1                	lui	a5,0x8
   136ac:	0905                	addi	s2,s2,1
   136ae:	00049c23          	sh	zero,24(s1)
   136b2:	17f9                	addi	a5,a5,-2 # 7ffe <exit-0x80a2>
   136b4:	f127cfe3          	blt	a5,s2,135d2 <emdnorm+0x1e0>
   136b8:	b5b5                	j	13524 <emdnorm+0x132>
   136ba:	09000793          	li	a5,144
   136be:	00fa8f63          	beq	s5,a5,136dc <emdnorm+0x2ea>
   136c2:	8526                	mv	a0,s1
   136c4:	841ff0ef          	jal	ra,12f04 <eshup1>
   136c8:	0044d783          	lhu	a5,4(s1)
   136cc:	eb99                	bnez	a5,136e2 <emdnorm+0x2f0>
   136ce:	00049c23          	sh	zero,24(s1)
   136d2:	e40959e3          	bgez	s2,13524 <emdnorm+0x132>
   136d6:	00049123          	sh	zero,2(s1)
   136da:	b5b9                	j	13528 <emdnorm+0x136>
   136dc:	0044d783          	lhu	a5,4(s1)
   136e0:	d7fd                	beqz	a5,136ce <emdnorm+0x2dc>
   136e2:	8526                	mv	a0,s1
   136e4:	fe4ff0ef          	jal	ra,12ec8 <eshdn1>
   136e8:	0905                	addi	s2,s2,1
   136ea:	b7d5                	j	136ce <emdnorm+0x2dc>
   136ec:	de0a0ae3          	beqz	s4,134e0 <emdnorm+0xee>
   136f0:	bd31                	j	1350c <emdnorm+0x11a>
   136f2:	008007b7          	lui	a5,0x800
   136f6:	4699                	li	a3,6
   136f8:	10000713          	li	a4,256
   136fc:	0ff78793          	addi	a5,a5,255 # 8000ff <__BSS_END__+0x7e02c7>
   13700:	c414                	sw	a3,8(s0)
   13702:	c85c                	sw	a5,20(s0)
   13704:	00e41c23          	sh	a4,24(s0)
   13708:	c454                	sw	a3,12(s0)
   1370a:	02e41323          	sh	a4,38(s0)
   1370e:	01542023          	sw	s5,0(s0)
   13712:	f12050e3          	blez	s2,13612 <emdnorm+0x220>
   13716:	00c4c683          	lbu	a3,12(s1)
   1371a:	00c48613          	addi	a2,s1,12
   1371e:	479d                	li	a5,7
   13720:	b3bd                	j	1348e <emdnorm+0x9c>
   13722:	47b1                	li	a5,12
   13724:	c41c                	sw	a5,8(s0)
   13726:	800107b7          	lui	a5,0x80010
   1372a:	17fd                	addi	a5,a5,-1 # 8000ffff <__BSS_END__+0x7fff01c7>
   1372c:	4705                	li	a4,1
   1372e:	c85c                	sw	a5,20(s0)
   13730:	47ad                	li	a5,11
   13732:	c45c                	sw	a5,12(s0)
   13734:	00e41c23          	sh	a4,24(s0)
   13738:	02e41823          	sh	a4,48(s0)
   1373c:	01542023          	sw	s5,0(s0)
   13740:	87d6                	mv	a5,s5
   13742:	b529                	j	1354c <emdnorm+0x15a>
   13744:	000a8e63          	beqz	s5,13760 <emdnorm+0x36e>
   13748:	00442a83          	lw	s5,4(s0)
   1374c:	401c                	lw	a5,0(s0)
   1374e:	cefa92e3          	bne	s5,a5,13432 <emdnorm+0x40>
   13752:	bbfd                	j	13550 <emdnorm+0x15e>
   13754:	0084c683          	lbu	a3,8(s1)
   13758:	00848613          	addi	a2,s1,8
   1375c:	4795                	li	a5,5
   1375e:	bb05                	j	1348e <emdnorm+0x9c>
   13760:	00049c23          	sh	zero,24(s1)
   13764:	00049123          	sh	zero,2(s1)
   13768:	b3c1                	j	13528 <emdnorm+0x136>
   1376a:	8abe                	mv	s5,a5
   1376c:	bd5d                	j	13622 <emdnorm+0x230>
   1376e:	8abe                	mv	s5,a5
   13770:	b54d                	j	13612 <emdnorm+0x220>

00013772 <eiremain>:
   13772:	7179                	addi	sp,sp,-48
   13774:	d04a                	sw	s2,32(sp)
   13776:	ce4e                	sw	s3,28(sp)
   13778:	892e                	mv	s2,a1
   1377a:	00255983          	lhu	s3,2(a0)
   1377e:	d606                	sw	ra,44(sp)
   13780:	d422                	sw	s0,40(sp)
   13782:	d226                	sw	s1,36(sp)
   13784:	cc52                	sw	s4,24(sp)
   13786:	84b2                	mv	s1,a2
   13788:	c65e                	sw	s7,12(sp)
   1378a:	ca56                	sw	s5,20(sp)
   1378c:	c85a                	sw	s6,16(sp)
   1378e:	c462                	sw	s8,8(sp)
   13790:	c266                	sw	s9,4(sp)
   13792:	c06a                	sw	s10,0(sp)
   13794:	8baa                	mv	s7,a0
   13796:	89fff0ef          	jal	ra,13034 <enormlz>
   1379a:	00295403          	lhu	s0,2(s2)
   1379e:	87aa                	mv	a5,a0
   137a0:	854a                	mv	a0,s2
   137a2:	40f989b3          	sub	s3,s3,a5
   137a6:	03448a13          	addi	s4,s1,52
   137aa:	88bff0ef          	jal	ra,13034 <enormlz>
   137ae:	8c09                	sub	s0,s0,a0
   137b0:	04e48713          	addi	a4,s1,78
   137b4:	87d2                	mv	a5,s4
   137b6:	0789                	addi	a5,a5,2
   137b8:	fe079f23          	sh	zero,-2(a5)
   137bc:	fee79de3          	bne	a5,a4,137b6 <eiremain+0x44>
   137c0:	07344a63          	blt	s0,s3,13834 <eiremain+0xc2>
   137c4:	004b8b13          	addi	s6,s7,4
   137c8:	00490a93          	addi	s5,s2,4
   137cc:	01ab8c13          	addi	s8,s7,26
   137d0:	00290d13          	addi	s10,s2,2
   137d4:	8756                	mv	a4,s5
   137d6:	87da                	mv	a5,s6
   137d8:	0007d603          	lhu	a2,0(a5)
   137dc:	00075683          	lhu	a3,0(a4)
   137e0:	0789                	addi	a5,a5,2
   137e2:	0709                	addi	a4,a4,2
   137e4:	06d61c63          	bne	a2,a3,1385c <eiremain+0xea>
   137e8:	fefc18e3          	bne	s8,a5,137d8 <eiremain+0x66>
   137ec:	018b8613          	addi	a2,s7,24
   137f0:	01890713          	addi	a4,s2,24
   137f4:	4681                	li	a3,0
   137f6:	00075783          	lhu	a5,0(a4)
   137fa:	00065583          	lhu	a1,0(a2)
   137fe:	1779                	addi	a4,a4,-2
   13800:	1679                	addi	a2,a2,-2
   13802:	8f8d                	sub	a5,a5,a1
   13804:	8f95                	sub	a5,a5,a3
   13806:	0107d693          	srli	a3,a5,0x10
   1380a:	00f71123          	sh	a5,2(a4)
   1380e:	8a85                	andi	a3,a3,1
   13810:	ffa713e3          	bne	a4,s10,137f6 <eiremain+0x84>
   13814:	4c85                	li	s9,1
   13816:	8552                	mv	a0,s4
   13818:	eecff0ef          	jal	ra,12f04 <eshup1>
   1381c:	04c4d783          	lhu	a5,76(s1)
   13820:	147d                	addi	s0,s0,-1
   13822:	854a                	mv	a0,s2
   13824:	00fce7b3          	or	a5,s9,a5
   13828:	04f49623          	sh	a5,76(s1)
   1382c:	ed8ff0ef          	jal	ra,12f04 <eshup1>
   13830:	fb3452e3          	bge	s0,s3,137d4 <eiremain+0x62>
   13834:	86a2                	mv	a3,s0
   13836:	5422                	lw	s0,40(sp)
   13838:	50b2                	lw	ra,44(sp)
   1383a:	49f2                	lw	s3,28(sp)
   1383c:	4a62                	lw	s4,24(sp)
   1383e:	4ad2                	lw	s5,20(sp)
   13840:	4b42                	lw	s6,16(sp)
   13842:	4bb2                	lw	s7,12(sp)
   13844:	4c22                	lw	s8,8(sp)
   13846:	4c92                	lw	s9,4(sp)
   13848:	4d02                	lw	s10,0(sp)
   1384a:	87a6                	mv	a5,s1
   1384c:	854a                	mv	a0,s2
   1384e:	5492                	lw	s1,36(sp)
   13850:	5902                	lw	s2,32(sp)
   13852:	4701                	li	a4,0
   13854:	4601                	li	a2,0
   13856:	4581                	li	a1,0
   13858:	6145                	addi	sp,sp,48
   1385a:	be61                	j	133f2 <emdnorm>
   1385c:	4c81                	li	s9,0
   1385e:	fac6ece3          	bltu	a3,a2,13816 <eiremain+0xa4>
   13862:	b769                	j	137ec <eiremain+0x7a>

00013864 <e113toe.isra.0>:
   13864:	7179                	addi	sp,sp,-48
   13866:	d422                	sw	s0,40(sp)
   13868:	d606                	sw	ra,44(sp)
   1386a:	842e                	mv	s0,a1
   1386c:	005c                	addi	a5,sp,4
   1386e:	01e10713          	addi	a4,sp,30
   13872:	0789                	addi	a5,a5,2
   13874:	fe079f23          	sh	zero,-2(a5)
   13878:	fee79de3          	bne	a5,a4,13872 <e113toe.isra.0+0xe>
   1387c:	00e55603          	lhu	a2,14(a0)
   13880:	67a1                	lui	a5,0x8
   13882:	17fd                	addi	a5,a5,-1 # 7fff <exit-0x80a1>
   13884:	00f65713          	srli	a4,a2,0xf
   13888:	40e00733          	neg	a4,a4
   1388c:	00e11223          	sh	a4,4(sp)
   13890:	8e7d                	and	a2,a2,a5
   13892:	04f60363          	beq	a2,a5,138d8 <e113toe.isra.0+0x74>
   13896:	00e50793          	addi	a5,a0,14
   1389a:	00c11323          	sh	a2,6(sp)
   1389e:	00a10713          	addi	a4,sp,10
   138a2:	ffe7d683          	lhu	a3,-2(a5)
   138a6:	17f9                	addi	a5,a5,-2
   138a8:	0709                	addi	a4,a4,2
   138aa:	fed71f23          	sh	a3,-2(a4)
   138ae:	fef51ae3          	bne	a0,a5,138a2 <e113toe.isra.0+0x3e>
   138b2:	ea19                	bnez	a2,138c8 <e113toe.isra.0+0x64>
   138b4:	00011423          	sh	zero,8(sp)
   138b8:	85a2                	mv	a1,s0
   138ba:	0048                	addi	a0,sp,4
   138bc:	eecff0ef          	jal	ra,12fa8 <emovo.constprop.0>
   138c0:	50b2                	lw	ra,44(sp)
   138c2:	5422                	lw	s0,40(sp)
   138c4:	6145                	addi	sp,sp,48
   138c6:	8082                	ret
   138c8:	4785                	li	a5,1
   138ca:	55fd                	li	a1,-1
   138cc:	0048                	addi	a0,sp,4
   138ce:	00f11423          	sh	a5,8(sp)
   138d2:	871ff0ef          	jal	ra,13142 <eshift.part.0>
   138d6:	b7cd                	j	138b8 <e113toe.isra.0+0x54>
   138d8:	87aa                	mv	a5,a0
   138da:	00e50693          	addi	a3,a0,14
   138de:	0007d703          	lhu	a4,0(a5)
   138e2:	0789                	addi	a5,a5,2
   138e4:	ef21                	bnez	a4,1393c <e113toe.isra.0+0xd8>
   138e6:	fed79ce3          	bne	a5,a3,138de <e113toe.isra.0+0x7a>
   138ea:	01440713          	addi	a4,s0,20
   138ee:	87a2                	mv	a5,s0
   138f0:	0789                	addi	a5,a5,2
   138f2:	fe079f23          	sh	zero,-2(a5)
   138f6:	fee79de3          	bne	a5,a4,138f0 <e113toe.isra.0+0x8c>
   138fa:	01240713          	addi	a4,s0,18
   138fe:	87a2                	mv	a5,s0
   13900:	0789                	addi	a5,a5,2
   13902:	fe079f23          	sh	zero,-2(a5)
   13906:	fee79de3          	bne	a5,a4,13900 <e113toe.isra.0+0x9c>
   1390a:	01245783          	lhu	a5,18(s0)
   1390e:	66a1                	lui	a3,0x8
   13910:	16fd                	addi	a3,a3,-1 # 7fff <exit-0x80a1>
   13912:	8fd5                	or	a5,a5,a3
   13914:	07c2                	slli	a5,a5,0x10
   13916:	83c1                	srli	a5,a5,0x10
   13918:	00f41923          	sh	a5,18(s0)
   1391c:	00e51683          	lh	a3,14(a0)
   13920:	fa06d0e3          	bgez	a3,138c0 <e113toe.isra.0+0x5c>
   13924:	86a2                	mv	a3,s0
   13926:	0006d603          	lhu	a2,0(a3)
   1392a:	0689                	addi	a3,a3,2
   1392c:	fa51                	bnez	a2,138c0 <e113toe.isra.0+0x5c>
   1392e:	fee69ce3          	bne	a3,a4,13926 <e113toe.isra.0+0xc2>
   13932:	7761                	lui	a4,0xffff8
   13934:	8fb9                	xor	a5,a5,a4
   13936:	00f41923          	sh	a5,18(s0)
   1393a:	b759                	j	138c0 <e113toe.isra.0+0x5c>
   1393c:	01040713          	addi	a4,s0,16
   13940:	87a2                	mv	a5,s0
   13942:	0789                	addi	a5,a5,2
   13944:	fe079f23          	sh	zero,-2(a5)
   13948:	fee79de3          	bne	a5,a4,13942 <e113toe.isra.0+0xde>
   1394c:	77f1                	lui	a5,0xffffc
   1394e:	00f41823          	sh	a5,16(s0)
   13952:	77e1                	lui	a5,0xffff8
   13954:	fff7c793          	not	a5,a5
   13958:	00f41923          	sh	a5,18(s0)
   1395c:	b795                	j	138c0 <e113toe.isra.0+0x5c>

0001395e <ediv>:
   1395e:	01255783          	lhu	a5,18(a0)
   13962:	7171                	addi	sp,sp,-176
   13964:	d522                	sw	s0,168(sp)
   13966:	fff7c793          	not	a5,a5
   1396a:	d326                	sw	s1,164(sp)
   1396c:	d14a                	sw	s2,160(sp)
   1396e:	cf4e                	sw	s3,156(sp)
   13970:	d706                	sw	ra,172(sp)
   13972:	cd52                	sw	s4,152(sp)
   13974:	cb56                	sw	s5,148(sp)
   13976:	c95a                	sw	s6,144(sp)
   13978:	c75e                	sw	s7,140(sp)
   1397a:	c562                	sw	s8,136(sp)
   1397c:	c366                	sw	s9,132(sp)
   1397e:	c16a                	sw	s10,128(sp)
   13980:	deee                	sw	s11,124(sp)
   13982:	01179713          	slli	a4,a5,0x11
   13986:	84aa                	mv	s1,a0
   13988:	89ae                	mv	s3,a1
   1398a:	8432                	mv	s0,a2
   1398c:	8936                	mv	s2,a3
   1398e:	eb11                	bnez	a4,139a2 <ediv+0x44>
   13990:	01250693          	addi	a3,a0,18
   13994:	87aa                	mv	a5,a0
   13996:	0007d703          	lhu	a4,0(a5) # ffff8000 <__BSS_END__+0xfffd81c8>
   1399a:	0789                	addi	a5,a5,2
   1399c:	ef45                	bnez	a4,13a54 <ediv+0xf6>
   1399e:	fed79ce3          	bne	a5,a3,13996 <ediv+0x38>
   139a2:	0129d783          	lhu	a5,18(s3)
   139a6:	fff7c793          	not	a5,a5
   139aa:	01179713          	slli	a4,a5,0x11
   139ae:	eb11                	bnez	a4,139c2 <ediv+0x64>
   139b0:	01298693          	addi	a3,s3,18
   139b4:	87ce                	mv	a5,s3
   139b6:	0007d703          	lhu	a4,0(a5)
   139ba:	0789                	addi	a5,a5,2
   139bc:	e75d                	bnez	a4,13a6a <ediv+0x10c>
   139be:	fed79ce3          	bne	a5,a3,139b6 <ediv+0x58>
   139c2:	6a79                	lui	s4,0x1e
   139c4:	25ca0593          	addi	a1,s4,604 # 1e25c <ezero>
   139c8:	8526                	mv	a0,s1
   139ca:	941ff0ef          	jal	ra,1330a <ecmp>
   139ce:	12050663          	beqz	a0,13afa <ediv+0x19c>
   139d2:	0124d603          	lhu	a2,18(s1)
   139d6:	67a1                	lui	a5,0x8
   139d8:	17fd                	addi	a5,a5,-1 # 7fff <exit-0x80a1>
   139da:	00f67533          	and	a0,a2,a5
   139de:	0af51163          	bne	a0,a5,13a80 <ediv+0x122>
   139e2:	01248693          	addi	a3,s1,18
   139e6:	87a6                	mv	a5,s1
   139e8:	0007d703          	lhu	a4,0(a5)
   139ec:	0789                	addi	a5,a5,2
   139ee:	eb49                	bnez	a4,13a80 <ediv+0x122>
   139f0:	fed79ce3          	bne	a5,a3,139e8 <ediv+0x8a>
   139f4:	0129d703          	lhu	a4,18(s3)
   139f8:	fff74793          	not	a5,a4
   139fc:	01179693          	slli	a3,a5,0x11
   13a00:	e6ed                	bnez	a3,13aea <ediv+0x18c>
   13a02:	01298693          	addi	a3,s3,18
   13a06:	87ce                	mv	a5,s3
   13a08:	0007d583          	lhu	a1,0(a5)
   13a0c:	0789                	addi	a5,a5,2
   13a0e:	36059763          	bnez	a1,13d7c <ediv+0x41e>
   13a12:	fed79be3          	bne	a5,a3,13a08 <ediv+0xaa>
   13a16:	01040713          	addi	a4,s0,16
   13a1a:	87a2                	mv	a5,s0
   13a1c:	0789                	addi	a5,a5,2
   13a1e:	fe079f23          	sh	zero,-2(a5)
   13a22:	fee79de3          	bne	a5,a4,13a1c <ediv+0xbe>
   13a26:	77f1                	lui	a5,0xffffc
   13a28:	00f41823          	sh	a5,16(s0)
   13a2c:	77e1                	lui	a5,0xffff8
   13a2e:	fff7c793          	not	a5,a5
   13a32:	00f41923          	sh	a5,18(s0)
   13a36:	50ba                	lw	ra,172(sp)
   13a38:	542a                	lw	s0,168(sp)
   13a3a:	549a                	lw	s1,164(sp)
   13a3c:	590a                	lw	s2,160(sp)
   13a3e:	49fa                	lw	s3,156(sp)
   13a40:	4a6a                	lw	s4,152(sp)
   13a42:	4ada                	lw	s5,148(sp)
   13a44:	4b4a                	lw	s6,144(sp)
   13a46:	4bba                	lw	s7,140(sp)
   13a48:	4c2a                	lw	s8,136(sp)
   13a4a:	4c9a                	lw	s9,132(sp)
   13a4c:	4d0a                	lw	s10,128(sp)
   13a4e:	5df6                	lw	s11,124(sp)
   13a50:	614d                	addi	sp,sp,176
   13a52:	8082                	ret
   13a54:	01448713          	addi	a4,s1,20
   13a58:	0004d783          	lhu	a5,0(s1)
   13a5c:	0489                	addi	s1,s1,2
   13a5e:	0409                	addi	s0,s0,2
   13a60:	fef41f23          	sh	a5,-2(s0)
